(lp0
I-153198
aI-104471
aI-55540
aI-40337
aI-33962
aI-30032
aI-29683
aI-28961
aI-28878
aI-27625
aI-26717
aI-26633
aI-26110
aI-21518
aI-21298
aI-20488
aI-19250
aI-17282
aI-17230
aI-15454
aI-14992
aI-14071
aI-13856
aI-13444
aI-12623
aI-12040
aI-11851
aI-11080
aI-10928
aI-10162
aI-9902
aI-9829
aI-9358
aI-8648
aI-8607
aI-8315
aI-8101
aI-8036
aI-7637
aI-6772
aI-6431
aI-6046
aI-5739
aI-4942
aI-4667
aI-4592
aI-4246
aI-3977
aI-3707
aI-3637
aI-3617
aI-3263
aI-3177
aI-3030
aI-2999
aI-2882
aI-2847
aI-2479
aI-2405
aI-2177
aI-2072
aI-1418
aI-1334
aI-1000
aI-896
aI-757
aI-742
aI-723
aI-257
aI-199
aI-89
aI-17
aI0
aI3
aI4
aI5
aI6
aI7
aI8
aI9
aI10
aI11
aI12
aI13
aI14
aI15
aI16
aI17
aI18
aI19
aI20
aI21
aI22
aI23
aI24
aI25
aI27
aI28
aI29
aI30
aI31
aI32
aI33
aI35
aI36
aI37
aI38
aI39
aI40
aI41
aI42
aI43
aI44
aI45
aI47
aI48
aI50
aI51
aI52
aI53
aI54
aI55
aI56
aI57
aI58
aI59
aI60
aI61
aI62
aI63
aI64
aI65
aI66
aI68
aI69
aI70
aI71
aI72
aI74
aI75
aI76
aI77
aI78
aI79
aI80
aI82
aI83
aI86
aI88
aI90
aI91
aI92
aI93
aI94
aI96
aI97
aI99
aI100
aI102
aI103
aI104
aI105
aI107
aI108
aI110
aI111
aI113
aI116
aI117
aI118
aI120
aI121
aI122
aI125
aI126
aI129
aI130
aI132
aI138
aI139
aI140
aI142
aI145
aI146
aI147
aI149
aI150
aI153
aI156
aI159
aI160
aI161
aI162
aI163
aI164
aI165
aI167
aI168
aI170
aI173
aI174
aI175
aI176
aI180
aI181
aI183
aI184
aI185
aI187
aI190
aI192
aI194
aI195
aI196
aI200
aI201
aI203
aI206
aI210
aI215
aI216
aI222
aI224
aI225
aI229
aI232
aI235
aI238
aI239
aI240
aI243
aI245
aI246
aI250
aI255
aI257
aI260
aI263
aI264
aI265
aI266
aI268
aI269
aI270
aI271
aI273
aI275
aI276
aI278
aI279
aI280
aI281
aI282
aI283
aI287
aI288
aI293
aI296
aI297
aI300
aI303
aI305
aI306
aI309
aI312
aI315
aI320
aI321
aI325
aI327
aI328
aI330
aI335
aI336
aI337
aI340
aI341
aI342
aI344
aI345
aI346
aI350
aI351
aI354
aI360
aI361
aI367
aI368
aI370
aI375
aI379
aI380
aI381
aI384
aI385
aI386
aI387
aI391
aI396
aI400
aI407
aI409
aI410
aI413
aI417
aI419
aI420
aI425
aI432
aI436
aI444
aI445
aI448
aI450
aI453
aI455
aI458
aI460
aI468
aI470
aI472
aI474
aI475
aI479
aI480
aI483
aI486
aI490
aI495
aI500
aI501
aI503
aI504
aI505
aI510
aI512
aI515
aI516
aI520
aI525
aI528
aI536
aI540
aI544
aI550
aI552
aI560
aI562
aI563
aI564
aI565
aI566
aI574
aI575
aI576
aI577
aI579
aI581
aI588
aI590
aI592
aI594
aI596
aI597
aI600
aI602
aI604
aI610
aI615
aI616
aI618
aI620
aI624
aI625
aI626
aI630
aI640
aI642
aI645
aI646
aI650
aI658
aI660
aI663
aI665
aI672
aI675
aI676
aI678
aI680
aI681
aI689
aI693
aI695
aI698
aI700
aI710
aI711
aI715
aI716
aI717
aI718
aI719
aI720
aI724
aI725
aI726
aI729
aI732
aI735
aI740
aI741
aI746
aI747
aI748
aI750
aI751
aI753
aI755
aI756
aI761
aI762
aI766
aI768
aI773
aI775
aI778
aI779
aI780
aI781
aI792
aI794
aI797
aI800
aI801
aI802
aI805
aI810
aI813
aI818
aI820
aI825
aI828
aI830
aI832
aI834
aI840
aI846
aI850
aI851
aI852
aI856
aI859
aI861
aI862
aI863
aI870
aI872
aI873
aI875
aI878
aI883
aI885
aI888
aI890
aI891
aI893
aI897
aI900
aI901
aI906
aI907
aI909
aI910
aI912
aI913
aI917
aI924
aI926
aI930
aI932
aI934
aI937
aI938
aI940
aI942
aI943
aI945
aI950
aI952
aI954
aI957
aI958
aI960
aI961
aI962
aI963
aI964
aI966
aI967
aI969
aI970
aI975
aI977
aI979
aI980
aI982
aI986
aI992
aI996
aI997
aI1000
aI1001
aI1004
aI1005
aI1008
aI1011
aI1015
aI1018
aI1019
aI1020
aI1022
aI1024
aI1025
aI1028
aI1032
aI1033
aI1034
aI1039
aI1040
aI1041
aI1043
aI1046
aI1050
aI1051
aI1056
aI1064
aI1066
aI1068
aI1074
aI1075
aI1077
aI1078
aI1080
aI1081
aI1083
aI1087
aI1088
aI1089
aI1095
aI1099
aI1100
aI1104
aI1106
aI1107
aI1109
aI1111
aI1112
aI1113
aI1115
aI1116
aI1120
aI1124
aI1125
aI1133
aI1139
aI1140
aI1141
aI1144
aI1145
aI1146
aI1148
aI1150
aI1152
aI1155
aI1156
aI1158
aI1160
aI1163
aI1164
aI1165
aI1167
aI1168
aI1170
aI1172
aI1182
aI1188
aI1190
aI1197
aI1198
aI1200
aI1203
aI1206
aI1207
aI1215
aI1219
aI1220
aI1222
aI1224
aI1226
aI1230
aI1231
aI1234
aI1236
aI1238
aI1239
aI1241
aI1242
aI1245
aI1247
aI1248
aI1250
aI1251
aI1258
aI1259
aI1260
aI1261
aI1267
aI1270
aI1280
aI1281
aI1282
aI1285
aI1287
aI1289
aI1293
aI1294
aI1296
aI1298
aI1299
aI1300
aI1302
aI1303
aI1308
aI1310
aI1312
aI1315
aI1319
aI1320
aI1323
aI1324
aI1327
aI1333
aI1339
aI1340
aI1342
aI1344
aI1350
aI1352
aI1353
aI1360
aI1361
aI1363
aI1367
aI1368
aI1370
aI1373
aI1374
aI1375
aI1377
aI1387
aI1389
aI1390
aI1393
aI1396
aI1400
aI1402
aI1404
aI1405
aI1406
aI1410
aI1414
aI1417
aI1418
aI1420
aI1423
aI1424
aI1429
aI1430
aI1432
aI1436
aI1439
aI1440
aI1442
aI1444
aI1445
aI1446
aI1447
aI1448
aI1450
aI1451
aI1452
aI1453
aI1455
aI1456
aI1457
aI1464
aI1465
aI1470
aI1475
aI1476
aI1478
aI1480
aI1481
aI1482
aI1483
aI1485
aI1487
aI1490
aI1493
aI1494
aI1500
aI1505
aI1506
aI1507
aI1508
aI1511
aI1512
aI1515
aI1517
aI1518
aI1520
aI1522
aI1525
aI1526
aI1530
aI1531
aI1533
aI1538
aI1540
aI1541
aI1550
aI1553
aI1555
aI1558
aI1559
aI1560
aI1563
aI1570
aI1573
aI1574
aI1575
aI1579
aI1580
aI1582
aI1583
aI1584
aI1590
aI1592
aI1596
aI1600
aI1604
aI1605
aI1608
aI1615
aI1617
aI1619
aI1620
aI1627
aI1632
aI1633
aI1635
aI1637
aI1639
aI1640
aI1642
aI1644
aI1650
aI1651
aI1654
aI1660
aI1667
aI1669
aI1672
aI1674
aI1678
aI1680
aI1684
aI1685
aI1686
aI1687
aI1688
aI1695
aI1699
aI1700
aI1703
aI1704
aI1709
aI1710
aI1712
aI1717
aI1718
aI1726
aI1730
aI1732
aI1735
aI1737
aI1741
aI1748
aI1750
aI1752
aI1753
aI1760
aI1764
aI1767
aI1768
aI1771
aI1774
aI1775
aI1776
aI1779
aI1784
aI1787
aI1789
aI1790
aI1794
aI1800
aI1806
aI1810
aI1819
aI1820
aI1821
aI1823
aI1824
aI1826
aI1828
aI1829
aI1832
aI1836
aI1845
aI1850
aI1852
aI1854
aI1865
aI1866
aI1869
aI1870
aI1872
aI1874
aI1875
aI1876
aI1878
aI1880
aI1883
aI1884
aI1888
aI1889
aI1890
aI1895
aI1900
aI1904
aI1906
aI1910
aI1913
aI1915
aI1916
aI1920
aI1921
aI1922
aI1926
aI1930
aI1932
aI1934
aI1944
aI1948
aI1950
aI1954
aI1960
aI1964
aI1968
aI1972
aI1975
aI1976
aI1980
aI1982
aI1984
aI1985
aI1986
aI1988
aI1992
aI1993
aI1994
aI1995
aI1996
aI2000
aI2001
aI2003
aI2004
aI2005
aI2008
aI2009
aI2010
aI2012
aI2013
aI2014
aI2016
aI2019
aI2021
aI2022
aI2028
aI2029
aI2030
aI2033
aI2036
aI2038
aI2040
aI2041
aI2044
aI2045
aI2050
aI2052
aI2055
aI2058
aI2060
aI2064
aI2067
aI2070
aI2071
aI2076
aI2079
aI2080
aI2082
aI2088
aI2092
aI2096
aI2098
aI2099
aI2100
aI2101
aI2103
aI2104
aI2107
aI2110
aI2112
aI2115
aI2124
aI2125
aI2127
aI2128
aI2134
aI2136
aI2140
aI2141
aI2142
aI2144
aI2145
aI2146
aI2148
aI2150
aI2151
aI2160
aI2161
aI2162
aI2167
aI2171
aI2178
aI2192
aI2194
aI2200
aI2204
aI2208
aI2211
aI2213
aI2215
aI2216
aI2220
aI2221
aI2222
aI2224
aI2227
aI2228
aI2229
aI2233
aI2236
aI2237
aI2240
aI2244
aI2250
aI2252
aI2253
aI2256
aI2259
aI2260
aI2264
aI2265
aI2266
aI2270
aI2274
aI2278
aI2280
aI2286
aI2288
aI2296
aI2299
aI2300
aI2301
aI2307
aI2309
aI2310
aI2312
aI2314
aI2325
aI2331
aI2332
aI2333
aI2336
aI2337
aI2340
aI2342
aI2348
aI2352
aI2357
aI2359
aI2360
aI2363
aI2366
aI2372
aI2374
aI2375
aI2379
aI2380
aI2381
aI2383
aI2386
aI2391
aI2395
aI2400
aI2402
aI2403
aI2410
aI2412
aI2414
aI2415
aI2416
aI2417
aI2421
aI2424
aI2427
aI2429
aI2430
aI2431
aI2432
aI2434
aI2435
aI2440
aI2441
aI2444
aI2445
aI2448
aI2449
aI2450
aI2455
aI2458
aI2460
aI2461
aI2462
aI2465
aI2466
aI2472
aI2474
aI2477
aI2478
aI2479
aI2480
aI2485
aI2488
aI2489
aI2490
aI2492
aI2494
aI2497
aI2498
aI2500
aI2505
aI2506
aI2508
aI2509
aI2510
aI2512
aI2515
aI2520
aI2524
aI2528
aI2529
aI2530
aI2531
aI2532
aI2534
aI2538
aI2540
aI2541
aI2542
aI2544
aI2547
aI2550
aI2557
aI2558
aI2560
aI2561
aI2565
aI2568
aI2571
aI2574
aI2577
aI2579
aI2580
aI2583
aI2584
aI2585
aI2586
aI2589
aI2592
aI2596
aI2598
aI2599
aI2600
aI2603
aI2604
aI2609
aI2610
aI2614
aI2615
aI2616
aI2620
aI2621
aI2625
aI2626
aI2630
aI2635
aI2637
aI2640
aI2642
aI2643
aI2645
aI2648
aI2650
aI2652
aI2653
aI2656
aI2657
aI2658
aI2660
aI2661
aI2664
aI2666
aI2667
aI2671
aI2672
aI2674
aI2678
aI2683
aI2685
aI2687
aI2688
aI2691
aI2696
aI2699
aI2700
aI2704
aI2712
aI2713
aI2715
aI2716
aI2722
aI2723
aI2725
aI2727
aI2728
aI2730
aI2735
aI2736
aI2739
aI2741
aI2743
aI2748
aI2750
aI2751
aI2753
aI2754
aI2760
aI2761
aI2764
aI2767
aI2771
aI2772
aI2773
aI2777
aI2779
aI2784
aI2790
aI2791
aI2795
aI2800
aI2803
aI2807
aI2808
aI2816
aI2818
aI2819
aI2820
aI2825
aI2826
aI2827
aI2829
aI2830
aI2832
aI2833
aI2834
aI2835
aI2838
aI2839
aI2840
aI2842
aI2843
aI2846
aI2847
aI2850
aI2852
aI2860
aI2862
aI2868
aI2869
aI2875
aI2878
aI2880
aI2882
aI2884
aI2885
aI2887
aI2892
aI2893
aI2895
aI2896
aI2900
aI2904
aI2905
aI2906
aI2912
aI2916
aI2925
aI2930
aI2931
aI2933
aI2935
aI2936
aI2942
aI2943
aI2947
aI2949
aI2950
aI2951
aI2952
aI2955
aI2956
aI2960
aI2963
aI2964
aI2965
aI2966
aI2967
aI2974
aI2980
aI2981
aI2986
aI2988
aI2990
aI2994
aI2995
aI3000
aI3003
aI3005
aI3008
aI3009
aI3012
aI3013
aI3017
aI3019
aI3020
aI3023
aI3024
aI3025
aI3034
aI3035
aI3037
aI3038
aI3039
aI3040
aI3045
aI3048
aI3050
aI3051
aI3055
aI3056
aI3057
aI3060
aI3062
aI3066
aI3067
aI3071
aI3072
aI3075
aI3079
aI3080
aI3082
aI3084
aI3090
aI3094
aI3095
aI3096
aI3100
aI3101
aI3102
aI3104
aI3106
aI3107
aI3110
aI3111
aI3112
aI3115
aI3119
aI3120
aI3122
aI3125
aI3126
aI3132
aI3136
aI3137
aI3139
aI3141
aI3144
aI3146
aI3147
aI3150
aI3151
aI3155
aI3156
aI3158
aI3161
aI3167
aI3168
aI3170
aI3173
aI3175
aI3192
aI3193
aI3199
aI3200
aI3202
aI3203
aI3206
aI3210
aI3214
aI3216
aI3220
aI3228
aI3230
aI3235
aI3238
aI3240
aI3245
aI3250
aI3253
aI3254
aI3256
aI3258
aI3260
aI3263
aI3264
aI3267
aI3270
aI3275
aI3276
aI3280
aI3282
aI3284
aI3288
aI3293
aI3295
aI3296
aI3297
aI3298
aI3300
aI3302
aI3308
aI3310
aI3312
aI3316
aI3320
aI3323
aI3324
aI3325
aI3330
aI3332
aI3333
aI3335
aI3338
aI3341
aI3342
aI3345
aI3346
aI3347
aI3349
aI3350
aI3352
aI3354
aI3357
aI3360
aI3366
aI3368
aI3371
aI3372
aI3375
aI3376
aI3380
aI3381
aI3384
aI3385
aI3387
aI3389
aI3391
aI3392
aI3397
aI3398
aI3399
aI3400
aI3402
aI3405
aI3406
aI3408
aI3410
aI3411
aI3416
aI3418
aI3420
aI3421
aI3427
aI3428
aI3432
aI3433
aI3449
aI3450
aI3451
aI3456
aI3461
aI3464
aI3465
aI3467
aI3468
aI3469
aI3470
aI3474
aI3475
aI3477
aI3480
aI3485
aI3486
aI3491
aI3500
aI3504
aI3509
aI3510
aI3520
aI3522
aI3523
aI3525
aI3530
aI3535
aI3539
aI3540
aI3541
aI3543
aI3545
aI3550
aI3551
aI3553
aI3559
aI3560
aI3563
aI3564
aI3565
aI3566
aI3568
aI3570
aI3575
aI3577
aI3578
aI3579
aI3582
aI3583
aI3584
aI3587
aI3588
aI3596
aI3598
aI3599
aI3600
aI3601
aI3616
aI3620
aI3622
aI3624
aI3625
aI3630
aI3635
aI3636
aI3640
aI3642
aI3644
aI3645
aI3646
aI3648
aI3650
aI3651
aI3657
aI3660
aI3667
aI3670
aI3672
aI3674
aI3676
aI3680
aI3681
aI3682
aI3684
aI3688
aI3690
aI3691
aI3694
aI3695
aI3699
aI3700
aI3703
aI3704
aI3705
aI3707
aI3708
aI3710
aI3718
aI3720
aI3724
aI3727
aI3729
aI3738
aI3740
aI3741
aI3743
aI3744
aI3750
aI3756
aI3758
aI3762
aI3763
aI3768
aI3769
aI3770
aI3771
aI3774
aI3775
aI3776
aI3780
aI3781
aI3783
aI3787
aI3792
aI3795
aI3798
aI3800
aI3801
aI3804
aI3805
aI3806
aI3807
aI3808
aI3810
aI3813
aI3815
aI3816
aI3818
aI3819
aI3820
aI3822
aI3827
aI3828
aI3834
aI3839
aI3840
aI3841
aI3843
aI3848
aI3850
aI3852
aI3853
aI3857
aI3858
aI3860
aI3861
aI3862
aI3863
aI3864
aI3866
aI3867
aI3870
aI3872
aI3875
aI3876
aI3885
aI3888
aI3889
aI3893
aI3894
aI3895
aI3900
aI3907
aI3910
aI3912
aI3913
aI3920
aI3923
aI3925
aI3926
aI3930
aI3936
aI3943
aI3946
aI3947
aI3948
aI3950
aI3952
aI3960
aI3963
aI3965
aI3967
aI3968
aI3969
aI3972
aI3978
aI3980
aI3981
aI3982
aI3984
aI3988
aI3989
aI3990
aI3991
aI3996
aI3999
aI4000
aI4003
aI4005
aI4008
aI4010
aI4012
aI4014
aI4016
aI4017
aI4020
aI4021
aI4024
aI4025
aI4027
aI4029
aI4030
aI4032
aI4033
aI4037
aI4038
aI4040
aI4044
aI4045
aI4046
aI4050
aI4056
aI4060
aI4063
aI4064
aI4066
aI4068
aI4070
aI4072
aI4075
aI4077
aI4078
aI4080
aI4091
aI4095
aI4098
aI4099
aI4100
aI4101
aI4104
aI4105
aI4108
aI4109
aI4113
aI4114
aI4116
aI4118
aI4120
aI4121
aI4123
aI4124
aI4128
aI4140
aI4145
aI4148
aI4150
aI4152
aI4160
aI4162
aI4163
aI4165
aI4167
aI4170
aI4172
aI4176
aI4181
aI4183
aI4193
aI4197
aI4198
aI4200
aI4205
aI4206
aI4212
aI4214
aI4218
aI4223
aI4230
aI4234
aI4239
aI4240
aI4242
aI4247
aI4250
aI4251
aI4253
aI4254
aI4260
aI4262
aI4265
aI4272
aI4275
aI4280
aI4281
aI4286
aI4292
aI4293
aI4296
aI4300
aI4304
aI4305
aI4307
aI4308
aI4320
aI4323
aI4325
aI4326
aI4329
aI4330
aI4331
aI4332
aI4333
aI4335
aI4344
aI4345
aI4350
aI4352
aI4356
aI4364
aI4367
aI4368
aI4370
aI4372
aI4375
aI4378
aI4379
aI4380
aI4384
aI4388
aI4389
aI4392
aI4393
aI4394
aI4400
aI4401
aI4404
aI4406
aI4407
aI4408
aI4410
aI4416
aI4418
aI4420
aI4425
aI4426
aI4428
aI4430
aI4437
aI4438
aI4439
aI4440
aI4441
aI4443
aI4446
aI4447
aI4452
aI4454
aI4455
aI4456
aI4460
aI4461
aI4463
aI4464
aI4469
aI4471
aI4475
aI4476
aI4480
aI4486
aI4491
aI4493
aI4494
aI4495
aI4496
aI4497
aI4500
aI4503
aI4505
aI4507
aI4510
aI4512
aI4517
aI4523
aI4524
aI4530
aI4531
aI4532
aI4536
aI4542
aI4545
aI4547
aI4548
aI4550
aI4553
aI4555
aI4556
aI4560
aI4563
aI4567
aI4569
aI4572
aI4574
aI4575
aI4585
aI4592
aI4599
aI4600
aI4601
aI4603
aI4604
aI4607
aI4608
aI4609
aI4617
aI4618
aI4620
aI4621
aI4622
aI4624
aI4625
aI4632
aI4633
aI4636
aI4638
aI4640
aI4642
aI4644
aI4645
aI4650
aI4651
aI4652
aI4656
aI4663
aI4667
aI4675
aI4680
aI4682
aI4684
aI4686
aI4690
aI4691
aI4692
aI4693
aI4697
aI4698
aI4699
aI4700
aI4701
aI4703
aI4704
aI4705
aI4712
aI4713
aI4716
aI4717
aI4721
aI4725
aI4729
aI4730
aI4732
aI4733
aI4734
aI4737
aI4738
aI4739
aI4743
aI4750
aI4751
aI4752
aI4753
aI4757
aI4760
aI4761
aI4763
aI4767
aI4768
aI4774
aI4775
aI4780
aI4784
aI4785
aI4793
aI4796
aI4797
aI4800
aI4802
aI4804
aI4810
aI4815
aI4820
aI4822
aI4824
aI4826
aI4830
aI4833
aI4836
aI4838
aI4839
aI4841
aI4848
aI4850
aI4851
aI4852
aI4854
aI4855
aI4857
aI4860
aI4862
aI4864
aI4866
aI4867
aI4870
aI4872
aI4875
aI4876
aI4879
aI4882
aI4884
aI4890
aI4894
aI4895
aI4896
aI4899
aI4900
aI4907
aI4908
aI4913
aI4914
aI4916
aI4918
aI4920
aI4923
aI4925
aI4931
aI4932
aI4933
aI4936
aI4938
aI4940
aI4944
aI4945
aI4946
aI4948
aI4950
aI4954
aI4956
aI4957
aI4959
aI4960
aI4967
aI4969
aI4972
aI4975
aI4980
aI4982
aI4985
aI4988
aI4991
aI4992
aI4993
aI4995
aI4997
aI4998
aI4999
aI5000
aI5001
aI5004
aI5005
aI5008
aI5011
aI5012
aI5013
aI5015
aI5016
aI5017
aI5018
aI5020
aI5021
aI5024
aI5028
aI5030
aI5031
aI5035
aI5036
aI5038
aI5039
aI5040
aI5043
aI5047
aI5048
aI5049
aI5050
aI5052
aI5053
aI5055
aI5060
aI5064
aI5066
aI5068
aI5070
aI5072
aI5075
aI5076
aI5077
aI5081
aI5088
aI5093
aI5094
aI5096
aI5097
aI5100
aI5104
aI5107
aI5108
aI5112
aI5113
aI5115
aI5120
aI5122
aI5123
aI5124
aI5127
aI5128
aI5130
aI5135
aI5139
aI5140
aI5148
aI5152
aI5154
aI5156
aI5159
aI5160
aI5162
aI5163
aI5165
aI5166
aI5167
aI5168
aI5170
aI5172
aI5173
aI5180
aI5184
aI5185
aI5186
aI5187
aI5188
aI5190
aI5194
aI5196
aI5197
aI5198
aI5200
aI5203
aI5205
aI5208
aI5210
aI5213
aI5214
aI5215
aI5216
aI5219
aI5220
aI5225
aI5226
aI5230
aI5231
aI5237
aI5238
aI5239
aI5242
aI5247
aI5248
aI5250
aI5259
aI5264
aI5265
aI5267
aI5268
aI5269
aI5273
aI5274
aI5279
aI5280
aI5283
aI5284
aI5287
aI5288
aI5290
aI5291
aI5292
aI5293
aI5294
aI5298
aI5300
aI5301
aI5302
aI5303
aI5304
aI5305
aI5307
aI5312
aI5316
aI5318
aI5320
aI5325
aI5328
aI5330
aI5333
aI5334
aI5335
aI5342
aI5344
aI5345
aI5348
aI5351
aI5352
aI5355
aI5356
aI5360
aI5361
aI5364
aI5365
aI5366
aI5371
aI5372
aI5380
aI5382
aI5383
aI5384
aI5388
aI5390
aI5392
aI5400
aI5403
aI5404
aI5406
aI5408
aI5409
aI5412
aI5413
aI5419
aI5421
aI5423
aI5424
aI5425
aI5426
aI5427
aI5430
aI5435
aI5436
aI5440
aI5441
aI5442
aI5443
aI5447
aI5448
aI5454
aI5457
aI5458
aI5460
aI5469
aI5470
aI5472
aI5473
aI5480
aI5481
aI5483
aI5484
aI5488
aI5494
aI5496
aI5498
aI5500
aI5503
aI5506
aI5508
aI5510
aI5512
aI5519
aI5520
aI5526
aI5531
aI5536
aI5543
aI5544
aI5547
aI5550
aI5556
aI5559
aI5562
aI5564
aI5568
aI5569
aI5572
aI5574
aI5575
aI5576
aI5578
aI5580
aI5584
aI5585
aI5588
aI5590
aI5591
aI5592
aI5593
aI5596
aI5598
aI5599
aI5600
aI5602
aI5605
aI5609
aI5610
aI5612
aI5613
aI5616
aI5617
aI5618
aI5619
aI5623
aI5625
aI5636
aI5638
aI5640
aI5650
aI5651
aI5652
aI5655
aI5658
aI5660
aI5662
aI5664
aI5666
aI5667
aI5670
aI5672
aI5675
aI5680
aI5682
aI5683
aI5686
aI5688
aI5689
aI5691
aI5692
aI5693
aI5694
aI5700
aI5705
aI5706
aI5710
aI5713
aI5714
aI5718
aI5719
aI5720
aI5721
aI5724
aI5726
aI5736
aI5740
aI5741
aI5744
aI5746
aI5748
aI5750
aI5753
aI5755
aI5756
aI5760
aI5761
aI5762
aI5766
aI5767
aI5768
aI5769
aI5770
aI5771
aI5772
aI5776
aI5780
aI5782
aI5783
aI5784
aI5790
aI5792
aI5793
aI5796
aI5800
aI5805
aI5808
aI5813
aI5816
aI5819
aI5820
aI5824
aI5825
aI5828
aI5829
aI5832
aI5843
aI5844
aI5850
aI5852
aI5855
aI5858
aI5859
aI5861
aI5863
aI5868
aI5869
aI5870
aI5871
aI5872
aI5875
aI5879
aI5880
aI5888
aI5892
aI5894
aI5897
aI5898
aI5900
aI5902
aI5903
aI5904
aI5906
aI5907
aI5910
aI5912
aI5916
aI5922
aI5925
aI5926
aI5928
aI5930
aI5931
aI5933
aI5934
aI5935
aI5936
aI5937
aI5940
aI5948
aI5950
aI5952
aI5960
aI5962
aI5964
aI5966
aI5967
aI5970
aI5972
aI5975
aI5976
aI5980
aI5983
aI5984
aI5988
aI5989
aI5991
aI5994
aI5995
aI5997
aI6000
aI6001
aI6003
aI6005
aI6006
aI6007
aI6008
aI6009
aI6012
aI6014
aI6015
aI6016
aI6018
aI6020
aI6023
aI6030
aI6032
aI6033
aI6034
aI6035
aI6036
aI6038
aI6040
aI6041
aI6042
aI6043
aI6044
aI6045
aI6047
aI6048
aI6050
aI6052
aI6054
aI6060
aI6061
aI6062
aI6064
aI6066
aI6068
aI6072
aI6075
aI6080
aI6084
aI6090
aI6091
aI6092
aI6095
aI6097
aI6098
aI6100
aI6104
aI6105
aI6106
aI6108
aI6110
aI6112
aI6115
aI6118
aI6119
aI6120
aI6121
aI6124
aI6125
aI6132
aI6133
aI6138
aI6139
aI6141
aI6144
aI6147
aI6150
aI6155
aI6157
aI6160
aI6163
aI6164
aI6168
aI6169
aI6172
aI6173
aI6174
aI6179
aI6180
aI6185
aI6188
aI6192
aI6195
aI6199
aI6200
aI6202
aI6203
aI6204
aI6209
aI6210
aI6215
aI6216
aI6217
aI6218
aI6222
aI6223
aI6224
aI6225
aI6228
aI6229
aI6230
aI6232
aI6235
aI6236
aI6237
aI6240
aI6241
aI6243
aI6248
aI6249
aI6250
aI6252
aI6255
aI6260
aI6261
aI6264
aI6265
aI6270
aI6271
aI6274
aI6276
aI6281
aI6282
aI6288
aI6290
aI6291
aI6292
aI6293
aI6294
aI6298
aI6300
aI6308
aI6309
aI6310
aI6312
aI6313
aI6314
aI6316
aI6318
aI6320
aI6321
aI6324
aI6325
aI6329
aI6332
aI6333
aI6335
aI6336
aI6338
aI6339
aI6340
aI6342
aI6343
aI6344
aI6345
aI6350
aI6355
aI6357
aI6358
aI6359
aI6360
aI6361
aI6362
aI6368
aI6375
aI6376
aI6381
aI6383
aI6384
aI6386
aI6390
aI6394
aI6396
aI6397
aI6400
aI6402
aI6405
aI6406
aI6408
aI6412
aI6414
aI6416
aI6419
aI6420
aI6421
aI6422
aI6424
aI6426
aI6427
aI6430
aI6431
aI6432
aI6435
aI6440
aI6444
aI6445
aI6447
aI6449
aI6450
aI6451
aI6456
aI6457
aI6460
aI6461
aI6462
aI6464
aI6468
aI6469
aI6470
aI6471
aI6472
aI6477
aI6479
aI6480
aI6484
aI6488
aI6489
aI6490
aI6492
aI6494
aI6498
aI6500
aI6501
aI6504
aI6508
aI6510
aI6511
aI6513
aI6514
aI6517
aI6519
aI6520
aI6524
aI6525
aI6528
aI6530
aI6532
aI6533
aI6535
aI6540
aI6546
aI6548
aI6552
aI6556
aI6559
aI6560
aI6562
aI6563
aI6564
aI6568
aI6570
aI6573
aI6574
aI6575
aI6576
aI6581
aI6588
aI6591
aI6592
aI6594
aI6596
aI6599
aI6600
aI6601
aI6603
aI6604
aI6608
aI6610
aI6612
aI6618
aI6620
aI6624
aI6630
aI6635
aI6636
aI6640
aI6643
aI6647
aI6648
aI6650
aI6652
aI6653
aI6656
aI6658
aI6659
aI6660
aI6661
aI6664
aI6667
aI6668
aI6670
aI6671
aI6672
aI6673
aI6675
aI6676
aI6677
aI6682
aI6683
aI6684
aI6690
aI6695
aI6696
aI6698
aI6700
aI6705
aI6708
aI6713
aI6714
aI6716
aI6718
aI6719
aI6720
aI6721
aI6723
aI6724
aI6725
aI6728
aI6729
aI6732
aI6734
aI6735
aI6736
aI6739
aI6740
aI6743
aI6744
aI6745
aI6746
aI6749
aI6750
aI6751
aI6752
aI6755
aI6756
aI6757
aI6758
aI6760
aI6766
aI6767
aI6768
aI6769
aI6771
aI6773
aI6775
aI6776
aI6779
aI6780
aI6783
aI6784
aI6786
aI6787
aI6788
aI6789
aI6791
aI6792
aI6793
aI6795
aI6796
aI6798
aI6799
aI6800
aI6802
aI6803
aI6804
aI6816
aI6818
aI6820
aI6824
aI6825
aI6828
aI6830
aI6832
aI6833
aI6835
aI6838
aI6840
aI6841
aI6842
aI6843
aI6847
aI6848
aI6850
aI6851
aI6852
aI6853
aI6854
aI6856
aI6857
aI6860
aI6863
aI6864
aI6867
aI6868
aI6869
aI6871
aI6872
aI6875
aI6876
aI6877
aI6878
aI6881
aI6882
aI6888
aI6889
aI6891
aI6898
aI6899
aI6900
aI6901
aI6902
aI6904
aI6905
aI6910
aI6912
aI6914
aI6917
aI6918
aI6919
aI6921
aI6924
aI6926
aI6927
aI6930
aI6931
aI6936
aI6938
aI6940
aI6943
aI6944
aI6946
aI6948
aI6950
aI6953
aI6954
aI6957
aI6960
aI6967
aI6968
aI6972
aI6974
aI6975
aI6977
aI6980
aI6983
aI6987
aI6990
aI6991
aI6994
aI6995
aI6996
aI6997
aI7000
aI7001
aI7003
aI7004
aI7005
aI7006
aI7007
aI7008
aI7010
aI7011
aI7016
aI7017
aI7020
aI7021
aI7024
aI7025
aI7030
aI7031
aI7032
aI7033
aI7036
aI7038
aI7039
aI7040
aI7041
aI7042
aI7044
aI7045
aI7046
aI7048
aI7050
aI7052
aI7055
aI7056
aI7059
aI7060
aI7061
aI7063
aI7064
aI7065
aI7068
aI7070
aI7072
aI7074
aI7075
aI7077
aI7078
aI7079
aI7080
aI7085
aI7088
aI7090
aI7092
aI7094
aI7095
aI7096
aI7099
aI7100
aI7102
aI7104
aI7112
aI7114
aI7116
aI7117
aI7121
aI7122
aI7124
aI7125
aI7126
aI7127
aI7128
aI7129
aI7131
aI7140
aI7141
aI7146
aI7147
aI7148
aI7149
aI7150
aI7152
aI7153
aI7155
aI7157
aI7160
aI7161
aI7164
aI7165
aI7168
aI7170
aI7175
aI7176
aI7185
aI7188
aI7190
aI7191
aI7194
aI7198
aI7200
aI7201
aI7203
aI7204
aI7205
aI7206
aI7207
aI7208
aI7210
aI7212
aI7215
aI7219
aI7220
aI7221
aI7224
aI7225
aI7228
aI7229
aI7230
aI7232
aI7233
aI7235
aI7236
aI7239
aI7240
aI7245
aI7246
aI7248
aI7250
aI7253
aI7254
aI7256
aI7259
aI7260
aI7264
aI7266
aI7267
aI7268
aI7270
aI7272
aI7274
aI7277
aI7278
aI7280
aI7281
aI7284
aI7286
aI7287
aI7288
aI7289
aI7290
aI7292
aI7294
aI7296
aI7297
aI7300
aI7301
aI7302
aI7304
aI7308
aI7309
aI7310
aI7313
aI7314
aI7316
aI7320
aI7321
aI7324
aI7325
aI7326
aI7332
aI7333
aI7336
aI7337
aI7339
aI7340
aI7344
aI7349
aI7350
aI7356
aI7359
aI7360
aI7364
aI7365
aI7366
aI7368
aI7369
aI7370
aI7372
aI7375
aI7376
aI7377
aI7379
aI7380
aI7382
aI7388
aI7392
aI7394
aI7395
aI7396
aI7398
aI7400
aI7401
aI7403
aI7404
aI7410
aI7413
aI7416
aI7419
aI7420
aI7424
aI7425
aI7428
aI7430
aI7434
aI7436
aI7437
aI7439
aI7440
aI7441
aI7444
aI7445
aI7446
aI7450
aI7451
aI7452
aI7454
aI7457
aI7464
aI7466
aI7467
aI7470
aI7476
aI7480
aI7484
aI7488
aI7490
aI7493
aI7497
aI7498
aI7500
aI7501
aI7503
aI7505
aI7510
aI7512
aI7514
aI7515
aI7516
aI7517
aI7520
aI7521
aI7523
aI7525
aI7527
aI7529
aI7530
aI7532
aI7533
aI7534
aI7535
aI7536
aI7539
aI7540
aI7541
aI7545
aI7547
aI7548
aI7549
aI7550
aI7552
aI7554
aI7557
aI7558
aI7560
aI7563
aI7568
aI7569
aI7571
aI7572
aI7580
aI7584
aI7588
aI7592
aI7594
aI7596
aI7597
aI7598
aI7600
aI7602
aI7607
aI7608
aI7612
aI7616
aI7617
aI7620
aI7622
aI7623
aI7624
aI7626
aI7627
aI7629
aI7631
aI7632
aI7633
aI7634
aI7638
aI7640
aI7644
aI7647
aI7648
aI7650
aI7652
aI7654
aI7656
aI7659
aI7661
aI7662
aI7663
aI7664
aI7665
aI7667
aI7668
aI7671
aI7676
aI7680
aI7681
aI7688
aI7692
aI7695
aI7696
aI7698
aI7700
aI7701
aI7703
aI7704
aI7705
aI7708
aI7710
aI7716
aI7718
aI7720
aI7722
aI7723
aI7725
aI7726
aI7728
aI7729
aI7732
aI7733
aI7734
aI7735
aI7736
aI7739
aI7740
aI7742
aI7744
aI7746
aI7747
aI7749
aI7750
aI7751
aI7752
aI7756
aI7757
aI7759
aI7760
aI7761
aI7764
aI7765
aI7767
aI7768
aI7772
aI7776
aI7779
aI7780
aI7781
aI7788
aI7789
aI7790
aI7791
aI7794
aI7795
aI7797
aI7800
aI7801
aI7809
aI7810
aI7812
aI7813
aI7814
aI7816
aI7817
aI7818
aI7820
aI7823
aI7824
aI7825
aI7829
aI7830
aI7831
aI7836
aI7840
aI7842
aI7847
aI7850
aI7852
aI7854
aI7860
aI7861
aI7862
aI7870
aI7872
aI7873
aI7875
aI7881
aI7882
aI7883
aI7886
aI7887
aI7888
aI7890
aI7892
aI7893
aI7894
aI7898
aI7899
aI7900
aI7902
aI7903
aI7905
aI7907
aI7908
aI7910
aI7915
aI7917
aI7920
aI7921
aI7926
aI7928
aI7930
aI7931
aI7932
aI7933
aI7936
aI7937
aI7938
aI7942
aI7943
aI7944
aI7947
aI7949
aI7952
aI7954
aI7955
aI7956
aI7957
aI7959
aI7960
aI7961
aI7963
aI7964
aI7968
aI7969
aI7970
aI7974
aI7978
aI7980
aI7982
aI7984
aI7987
aI7988
aI7992
aI7996
aI7998
aI8000
aI8001
aI8003
aI8004
aI8006
aI8007
aI8008
aI8009
aI8010
aI8011
aI8013
aI8015
aI8016
aI8019
aI8020
aI8022
aI8024
aI8025
aI8027
aI8028
aI8030
aI8032
aI8033
aI8034
aI8035
aI8036
aI8039
aI8040
aI8041
aI8047
aI8049
aI8050
aI8051
aI8052
aI8053
aI8054
aI8055
aI8060
aI8063
aI8064
aI8068
aI8070
aI8072
aI8073
aI8076
aI8077
aI8079
aI8080
aI8082
aI8084
aI8088
aI8089
aI8090
aI8096
aI8098
aI8099
aI8100
aI8101
aI8106
aI8110
aI8112
aI8113
aI8114
aI8115
aI8116
aI8118
aI8120
aI8122
aI8123
aI8124
aI8125
aI8132
aI8133
aI8135
aI8136
aI8139
aI8140
aI8144
aI8145
aI8148
aI8150
aI8155
aI8156
aI8158
aI8159
aI8160
aI8161
aI8162
aI8164
aI8165
aI8166
aI8167
aI8168
aI8170
aI8172
aI8174
aI8175
aI8177
aI8182
aI8184
aI8185
aI8186
aI8189
aI8190
aI8192
aI8194
aI8196
aI8198
aI8199
aI8200
aI8203
aI8206
aI8207
aI8208
aI8211
aI8213
aI8214
aI8220
aI8222
aI8225
aI8228
aI8232
aI8233
aI8234
aI8236
aI8239
aI8240
aI8241
aI8242
aI8245
aI8247
aI8250
aI8252
aI8256
aI8259
aI8260
aI8264
aI8265
aI8266
aI8267
aI8268
aI8279
aI8280
aI8281
aI8282
aI8284
aI8285
aI8288
aI8291
aI8292
aI8300
aI8305
aI8306
aI8308
aI8316
aI8317
aI8318
aI8320
aI8322
aI8323
aI8325
aI8329
aI8330
aI8333
aI8334
aI8335
aI8340
aI8342
aI8344
aI8345
aI8347
aI8350
aI8352
aI8353
aI8354
aI8355
aI8356
aI8358
aI8360
aI8361
aI8364
aI8367
aI8368
aI8370
aI8371
aI8372
aI8376
aI8379
aI8380
aI8381
aI8383
aI8387
aI8390
aI8396
aI8400
aI8401
aI8403
aI8404
aI8412
aI8413
aI8416
aI8419
aI8420
aI8423
aI8424
aI8425
aI8429
aI8430
aI8432
aI8434
aI8435
aI8436
aI8438
aI8440
aI8448
aI8449
aI8450
aI8453
aI8454
aI8457
aI8458
aI8463
aI8473
aI8476
aI8478
aI8480
aI8482
aI8483
aI8484
aI8487
aI8489
aI8490
aI8491
aI8492
aI8494
aI8496
aI8497
aI8498
aI8500
aI8506
aI8507
aI8508
aI8509
aI8510
aI8511
aI8512
aI8513
aI8514
aI8515
aI8519
aI8520
aI8521
aI8523
aI8524
aI8525
aI8528
aI8529
aI8531
aI8532
aI8533
aI8534
aI8539
aI8540
aI8541
aI8542
aI8544
aI8548
aI8550
aI8552
aI8555
aI8558
aI8559
aI8560
aI8561
aI8563
aI8566
aI8567
aI8568
aI8570
aI8571
aI8572
aI8575
aI8576
aI8578
aI8579
aI8580
aI8582
aI8586
aI8587
aI8588
aI8590
aI8591
aI8592
aI8596
aI8599
aI8600
aI8602
aI8603
aI8604
aI8605
aI8610
aI8611
aI8613
aI8614
aI8616
aI8619
aI8623
aI8624
aI8625
aI8627
aI8628
aI8629
aI8632
aI8636
aI8640
aI8646
aI8647
aI8648
aI8649
aI8650
aI8652
aI8653
aI8654
aI8656
aI8657
aI8658
aI8660
aI8661
aI8662
aI8664
aI8666
aI8667
aI8669
aI8672
aI8673
aI8674
aI8676
aI8677
aI8680
aI8682
aI8684
aI8688
aI8689
aI8690
aI8691
aI8697
aI8698
aI8700
aI8703
aI8706
aI8707
aI8710
aI8712
aI8713
aI8714
aI8716
aI8717
aI8719
aI8720
aI8722
aI8723
aI8724
aI8725
aI8726
aI8729
aI8731
aI8734
aI8736
aI8740
aI8742
aI8744
aI8745
aI8748
aI8750
aI8751
aI8756
aI8757
aI8758
aI8760
aI8762
aI8765
aI8772
aI8773
aI8774
aI8775
aI8778
aI8784
aI8786
aI8791
aI8793
aI8794
aI8795
aI8800
aI8801
aI8805
aI8807
aI8811
aI8814
aI8816
aI8818
aI8820
aI8823
aI8824
aI8826
aI8827
aI8829
aI8830
aI8832
aI8835
aI8836
aI8839
aI8840
aI8842
aI8843
aI8844
aI8845
aI8847
aI8848
aI8850
aI8851
aI8852
aI8853
aI8855
aI8856
aI8860
aI8861
aI8862
aI8863
aI8864
aI8868
aI8870
aI8872
aI8874
aI8875
aI8876
aI8879
aI8880
aI8883
aI8885
aI8888
aI8891
aI8892
aI8894
aI8897
aI8899
aI8900
aI8901
aI8903
aI8905
aI8906
aI8910
aI8912
aI8914
aI8916
aI8917
aI8918
aI8919
aI8920
aI8921
aI8922
aI8923
aI8928
aI8933
aI8936
aI8940
aI8943
aI8948
aI8950
aI8951
aI8952
aI8954
aI8956
aI8957
aI8958
aI8960
aI8962
aI8964
aI8966
aI8967
aI8970
aI8971
aI8972
aI8973
aI8976
aI8978
aI8979
aI8980
aI8982
aI8983
aI8984
aI8987
aI8988
aI8994
aI8996
aI8998
aI9000
aI9001
aI9003
aI9005
aI9006
aI9008
aI9010
aI9012
aI9013
aI9014
aI9015
aI9016
aI9018
aI9019
aI9020
aI9023
aI9024
aI9025
aI9028
aI9029
aI9030
aI9035
aI9039
aI9044
aI9045
aI9048
aI9050
aI9052
aI9053
aI9055
aI9056
aI9060
aI9061
aI9068
aI9079
aI9080
aI9081
aI9082
aI9083
aI9089
aI9090
aI9091
aI9093
aI9095
aI9096
aI9097
aI9099
aI9100
aI9102
aI9104
aI9105
aI9108
aI9109
aI9110
aI9114
aI9115
aI9116
aI9117
aI9120
aI9121
aI9124
aI9125
aI9126
aI9128
aI9129
aI9130
aI9135
aI9136
aI9137
aI9139
aI9141
aI9142
aI9144
aI9147
aI9148
aI9150
aI9152
aI9153
aI9155
aI9156
aI9164
aI9165
aI9167
aI9168
aI9172
aI9175
aI9176
aI9177
aI9180
aI9182
aI9185
aI9192
aI9194
aI9195
aI9196
aI9197
aI9199
aI9200
aI9202
aI9204
aI9205
aI9210
aI9214
aI9218
aI9221
aI9222
aI9223
aI9226
aI9228
aI9235
aI9237
aI9240
aI9247
aI9250
aI9251
aI9254
aI9255
aI9256
aI9258
aI9259
aI9263
aI9264
aI9267
aI9270
aI9271
aI9275
aI9276
aI9277
aI9280
aI9285
aI9286
aI9288
aI9290
aI9291
aI9293
aI9294
aI9295
aI9300
aI9302
aI9304
aI9307
aI9308
aI9311
aI9312
aI9318
aI9319
aI9320
aI9322
aI9324
aI9330
aI9331
aI9333
aI9336
aI9337
aI9339
aI9340
aI9346
aI9348
aI9349
aI9350
aI9351
aI9353
aI9356
aI9357
aI9358
aI9360
aI9362
aI9364
aI9366
aI9367
aI9369
aI9370
aI9372
aI9373
aI9374
aI9375
aI9376
aI9377
aI9378
aI9384
aI9390
aI9391
aI9396
aI9397
aI9398
aI9400
aI9402
aI9405
aI9406
aI9407
aI9408
aI9409
aI9411
aI9413
aI9415
aI9417
aI9418
aI9420
aI9422
aI9425
aI9426
aI9427
aI9430
aI9434
aI9435
aI9436
aI9438
aI9440
aI9442
aI9443
aI9445
aI9448
aI9450
aI9451
aI9452
aI9453
aI9454
aI9457
aI9458
aI9459
aI9460
aI9462
aI9463
aI9464
aI9465
aI9468
aI9469
aI9470
aI9471
aI9472
aI9473
aI9474
aI9475
aI9476
aI9478
aI9479
aI9480
aI9484
aI9488
aI9490
aI9492
aI9493
aI9494
aI9496
aI9497
aI9500
aI9501
aI9502
aI9504
aI9505
aI9511
aI9512
aI9515
aI9516
aI9520
aI9523
aI9528
aI9531
aI9536
aI9537
aI9542
aI9543
aI9544
aI9546
aI9547
aI9548
aI9550
aI9552
aI9553
aI9556
aI9557
aI9558
aI9560
aI9561
aI9562
aI9565
aI9567
aI9568
aI9569
aI9570
aI9572
aI9574
aI9575
aI9576
aI9578
aI9583
aI9584
aI9586
aI9587
aI9590
aI9592
aI9593
aI9594
aI9595
aI9599
aI9600
aI9601
aI9605
aI9606
aI9607
aI9610
aI9612
aI9613
aI9615
aI9620
aI9622
aI9623
aI9624
aI9625
aI9626
aI9627
aI9631
aI9632
aI9636
aI9637
aI9640
aI9641
aI9642
aI9643
aI9644
aI9650
aI9657
aI9658
aI9660
aI9667
aI9670
aI9674
aI9675
aI9676
aI9680
aI9681
aI9683
aI9684
aI9686
aI9687
aI9688
aI9690
aI9691
aI9694
aI9695
aI9696
aI9700
aI9702
aI9704
aI9710
aI9712
aI9713
aI9717
aI9718
aI9724
aI9725
aI9726
aI9728
aI9730
aI9732
aI9734
aI9736
aI9737
aI9738
aI9739
aI9740
aI9744
aI9747
aI9750
aI9751
aI9752
aI9755
aI9759
aI9765
aI9766
aI9768
aI9772
aI9773
aI9774
aI9775
aI9776
aI9777
aI9779
aI9780
aI9781
aI9783
aI9784
aI9785
aI9787
aI9788
aI9789
aI9790
aI9792
aI9798
aI9799
aI9800
aI9801
aI9803
aI9806
aI9807
aI9808
aI9809
aI9810
aI9815
aI9816
aI9817
aI9818
aI9819
aI9820
aI9823
aI9824
aI9825
aI9828
aI9831
aI9833
aI9834
aI9836
aI9839
aI9840
aI9842
aI9844
aI9845
aI9850
aI9855
aI9857
aI9860
aI9861
aI9864
aI9868
aI9870
aI9871
aI9872
aI9873
aI9875
aI9876
aI9877
aI9878
aI9880
aI9883
aI9884
aI9885
aI9886
aI9887
aI9888
aI9891
aI9893
aI9895
aI9898
aI9899
aI9900
aI9904
aI9905
aI9906
aI9909
aI9910
aI9912
aI9913
aI9914
aI9915
aI9917
aI9918
aI9920
aI9924
aI9926
aI9928
aI9930
aI9932
aI9933
aI9935
aI9936
aI9938
aI9939
aI9940
aI9948
aI9949
aI9950
aI9953
aI9954
aI9956
aI9957
aI9960
aI9961
aI9962
aI9964
aI9965
aI9966
aI9967
aI9968
aI9969
aI9970
aI9971
aI9980
aI9981
aI9982
aI9984
aI9987
aI9988
aI9990
aI9991
aI9993
aI9994
aI9995
aI9997
aI9998
aI9999
aI10000
aI10001
aI10003
aI10004
aI10005
aI10006
aI10008
aI10010
aI10011
aI10012
aI10013
aI10014
aI10015
aI10016
aI10017
aI10018
aI10020
aI10022
aI10023
aI10024
aI10025
aI10026
aI10027
aI10029
aI10030
aI10031
aI10032
aI10033
aI10034
aI10039
aI10040
aI10042
aI10043
aI10044
aI10045
aI10046
aI10047
aI10050
aI10052
aI10053
aI10054
aI10055
aI10056
aI10058
aI10060
aI10065
aI10068
aI10069
aI10070
aI10074
aI10075
aI10076
aI10077
aI10078
aI10080
aI10084
aI10087
aI10088
aI10090
aI10092
aI10096
aI10100
aI10102
aI10107
aI10112
aI10114
aI10115
aI10116
aI10120
aI10121
aI10122
aI10127
aI10128
aI10130
aI10131
aI10136
aI10137
aI10138
aI10140
aI10141
aI10143
aI10147
aI10150
aI10151
aI10152
aI10153
aI10158
aI10160
aI10162
aI10164
aI10166
aI10167
aI10168
aI10172
aI10174
aI10176
aI10180
aI10185
aI10187
aI10188
aI10189
aI10190
aI10192
aI10194
aI10196
aI10197
aI10198
aI10200
aI10202
aI10203
aI10205
aI10207
aI10210
aI10212
aI10213
aI10214
aI10215
aI10217
aI10218
aI10219
aI10221
aI10225
aI10230
aI10231
aI10232
aI10234
aI10236
aI10240
aI10244
aI10245
aI10248
aI10250
aI10254
aI10256
aI10260
aI10261
aI10263
aI10265
aI10267
aI10271
aI10272
aI10274
aI10277
aI10278
aI10279
aI10281
aI10284
aI10286
aI10287
aI10290
aI10296
aI10300
aI10303
aI10307
aI10308
aI10310
aI10315
aI10317
aI10320
aI10322
aI10324
aI10326
aI10328
aI10329
aI10330
aI10331
aI10332
aI10333
aI10335
aI10336
aI10339
aI10340
aI10344
aI10346
aI10348
aI10350
aI10351
aI10352
aI10354
aI10356
aI10359
aI10362
aI10364
aI10368
aI10370
aI10371
aI10373
aI10375
aI10378
aI10380
aI10382
aI10385
aI10388
aI10389
aI10390
aI10391
aI10392
aI10393
aI10396
aI10397
aI10398
aI10400
aI10402
aI10404
aI10406
aI10410
aI10414
aI10415
aI10416
aI10422
aI10424
aI10426
aI10428
aI10430
aI10433
aI10434
aI10435
aI10437
aI10438
aI10440
aI10445
aI10446
aI10448
aI10450
aI10453
aI10454
aI10455
aI10456
aI10458
aI10459
aI10462
aI10464
aI10465
aI10467
aI10468
aI10469
aI10470
aI10474
aI10475
aI10478
aI10480
aI10482
aI10484
aI10485
aI10487
aI10488
aI10490
aI10491
aI10492
aI10493
aI10494
aI10495
aI10496
aI10497
aI10499
aI10500
aI10502
aI10506
aI10508
aI10510
aI10512
aI10515
aI10516
aI10519
aI10520
aI10521
aI10523
aI10525
aI10529
aI10530
aI10531
aI10535
aI10536
aI10537
aI10539
aI10540
aI10543
aI10544
aI10547
aI10548
aI10550
aI10551
aI10555
aI10556
aI10557
aI10558
aI10560
aI10562
aI10569
aI10571
aI10572
aI10573
aI10574
aI10578
aI10580
aI10581
aI10583
aI10584
aI10585
aI10592
aI10593
aI10600
aI10601
aI10604
aI10605
aI10608
aI10609
aI10610
aI10612
aI10615
aI10616
aI10618
aI10619
aI10620
aI10625
aI10627
aI10628
aI10630
aI10633
aI10634
aI10635
aI10638
aI10640
aI10641
aI10644
aI10645
aI10647
aI10648
aI10649
aI10650
aI10651
aI10652
aI10653
aI10655
aI10656
aI10659
aI10660
aI10661
aI10667
aI10668
aI10671
aI10672
aI10675
aI10676
aI10677
aI10680
aI10682
aI10689
aI10690
aI10692
aI10693
aI10695
aI10700
aI10702
aI10704
aI10708
aI10709
aI10711
aI10712
aI10713
aI10714
aI10716
aI10720
aI10722
aI10723
aI10726
aI10727
aI10728
aI10729
aI10731
aI10733
aI10735
aI10739
aI10743
aI10748
aI10750
aI10752
aI10753
aI10754
aI10755
aI10757
aI10761
aI10762
aI10764
aI10766
aI10768
aI10771
aI10774
aI10776
aI10777
aI10780
aI10782
aI10784
aI10787
aI10788
aI10795
aI10800
aI10801
aI10805
aI10806
aI10807
aI10808
aI10810
aI10811
aI10815
aI10816
aI10820
aI10821
aI10824
aI10825
aI10828
aI10830
aI10832
aI10833
aI10836
aI10840
aI10841
aI10842
aI10843
aI10846
aI10848
aI10850
aI10852
aI10853
aI10856
aI10857
aI10859
aI10860
aI10862
aI10864
aI10865
aI10866
aI10867
aI10868
aI10869
aI10870
aI10871
aI10872
aI10874
aI10875
aI10876
aI10878
aI10880
aI10881
aI10884
aI10885
aI10886
aI10887
aI10890
aI10891
aI10892
aI10895
aI10897
aI10898
aI10900
aI10902
aI10904
aI10905
aI10907
aI10908
aI10910
aI10911
aI10912
aI10915
aI10918
aI10920
aI10922
aI10923
aI10924
aI10925
aI10927
aI10928
aI10932
aI10933
aI10934
aI10935
aI10940
aI10945
aI10948
aI10950
aI10951
aI10953
aI10955
aI10956
aI10957
aI10962
aI10968
aI10971
aI10976
aI10977
aI10978
aI10980
aI10981
aI10983
aI10987
aI10989
aI10990
aI10992
aI10994
aI10995
aI10996
aI10997
aI10999
aI11000
aI11002
aI11003
aI11004
aI11005
aI11007
aI11009
aI11010
aI11011
aI11015
aI11016
aI11019
aI11020
aI11024
aI11025
aI11026
aI11032
aI11034
aI11035
aI11038
aI11039
aI11040
aI11042
aI11043
aI11045
aI11046
aI11047
aI11049
aI11050
aI11054
aI11056
aI11057
aI11060
aI11063
aI11064
aI11066
aI11068
aI11070
aI11074
aI11076
aI11078
aI11081
aI11083
aI11085
aI11087
aI11088
aI11091
aI11092
aI11096
aI11099
aI11100
aI11102
aI11106
aI11107
aI11108
aI11109
aI11110
aI11111
aI11113
aI11115
aI11119
aI11120
aI11124
aI11125
aI11127
aI11128
aI11129
aI11130
aI11132
aI11133
aI11134
aI11138
aI11139
aI11140
aI11141
aI11142
aI11144
aI11145
aI11146
aI11148
aI11150
aI11151
aI11152
aI11153
aI11154
aI11157
aI11160
aI11164
aI11169
aI11172
aI11176
aI11178
aI11179
aI11180
aI11181
aI11182
aI11183
aI11187
aI11190
aI11193
aI11194
aI11196
aI11197
aI11200
aI11201
aI11202
aI11208
aI11210
aI11211
aI11212
aI11220
aI11222
aI11223
aI11224
aI11225
aI11226
aI11232
aI11233
aI11234
aI11235
aI11237
aI11238
aI11239
aI11240
aI11241
aI11243
aI11247
aI11249
aI11250
aI11252
aI11253
aI11256
aI11260
aI11261
aI11264
aI11266
aI11271
aI11272
aI11275
aI11276
aI11280
aI11282
aI11283
aI11284
aI11288
aI11289
aI11290
aI11291
aI11292
aI11293
aI11294
aI11296
aI11300
aI11303
aI11304
aI11306
aI11308
aI11309
aI11310
aI11311
aI11313
aI11314
aI11316
aI11318
aI11319
aI11320
aI11321
aI11323
aI11328
aI11331
aI11332
aI11333
aI11335
aI11336
aI11338
aI11339
aI11340
aI11341
aI11344
aI11345
aI11350
aI11351
aI11352
aI11353
aI11354
aI11360
aI11362
aI11364
aI11368
aI11370
aI11372
aI11373
aI11375
aI11378
aI11379
aI11380
aI11382
aI11383
aI11384
aI11388
aI11389
aI11391
aI11392
aI11395
aI11400
aI11401
aI11403
aI11404
aI11407
aI11409
aI11414
aI11415
aI11416
aI11417
aI11419
aI11420
aI11421
aI11424
aI11430
aI11433
aI11434
aI11436
aI11438
aI11439
aI11440
aI11443
aI11446
aI11448
aI11450
aI11452
aI11454
aI11455
aI11457
aI11458
aI11460
aI11463
aI11464
aI11465
aI11469
aI11472
aI11475
aI11477
aI11478
aI11480
aI11486
aI11489
aI11491
aI11492
aI11493
aI11494
aI11495
aI11496
aI11497
aI11499
aI11500
aI11502
aI11504
aI11505
aI11508
aI11510
aI11513
aI11516
aI11518
aI11520
aI11524
aI11526
aI11527
aI11530
aI11531
aI11532
aI11535
aI11536
aI11539
aI11540
aI11541
aI11542
aI11543
aI11544
aI11545
aI11548
aI11550
aI11551
aI11552
aI11553
aI11554
aI11559
aI11560
aI11562
aI11564
aI11565
aI11566
aI11568
aI11571
aI11574
aI11575
aI11578
aI11579
aI11580
aI11581
aI11582
aI11585
aI11586
aI11589
aI11590
aI11592
aI11593
aI11594
aI11595
aI11600
aI11602
aI11606
aI11607
aI11610
aI11611
aI11612
aI11614
aI11618
aI11619
aI11620
aI11621
aI11622
aI11623
aI11625
aI11626
aI11628
aI11629
aI11632
aI11633
aI11635
aI11636
aI11638
aI11639
aI11640
aI11641
aI11643
aI11644
aI11645
aI11646
aI11648
aI11650
aI11654
aI11656
aI11657
aI11659
aI11660
aI11663
aI11664
aI11665
aI11666
aI11667
aI11670
aI11672
aI11674
aI11676
aI11677
aI11678
aI11680
aI11681
aI11683
aI11685
aI11688
aI11696
aI11700
aI11701
aI11706
aI11707
aI11710
aI11711
aI11715
aI11718
aI11719
aI11721
aI11723
aI11724
aI11729
aI11730
aI11731
aI11735
aI11736
aI11741
aI11749
aI11750
aI11751
aI11754
aI11756
aI11758
aI11760
aI11762
aI11763
aI11764
aI11765
aI11767
aI11768
aI11770
aI11771
aI11772
aI11775
aI11779
aI11780
aI11783
aI11785
aI11786
aI11787
aI11789
aI11792
aI11794
aI11796
aI11798
aI11800
aI11802
aI11805
aI11806
aI11808
aI11810
aI11813
aI11814
aI11818
aI11820
aI11822
aI11823
aI11827
aI11829
aI11830
aI11832
aI11835
aI11836
aI11837
aI11840
aI11841
aI11847
aI11849
aI11850
aI11853
aI11856
aI11857
aI11859
aI11860
aI11863
aI11864
aI11866
aI11870
aI11872
aI11873
aI11874
aI11875
aI11877
aI11880
aI11881
aI11882
aI11883
aI11884
aI11888
aI11892
aI11893
aI11894
aI11900
aI11904
aI11906
aI11910
aI11912
aI11923
aI11924
aI11925
aI11930
aI11935
aI11938
aI11940
aI11948
aI11950
aI11952
aI11955
aI11958
aI11960
aI11964
aI11970
aI11971
aI11972
aI11976
aI11977
aI11978
aI11980
aI11981
aI11983
aI11985
aI11986
aI11989
aI11990
aI11993
aI11995
aI11996
aI11997
aI11999
aI12000
aI12003
aI12004
aI12005
aI12006
aI12008
aI12009
aI12010
aI12011
aI12012
aI12015
aI12016
aI12018
aI12020
aI12021
aI12022
aI12024
aI12025
aI12028
aI12029
aI12030
aI12031
aI12032
aI12034
aI12036
aI12037
aI12040
aI12041
aI12043
aI12044
aI12045
aI12048
aI12050
aI12052
aI12055
aI12056
aI12058
aI12059
aI12060
aI12064
aI12068
aI12069
aI12070
aI12072
aI12073
aI12075
aI12077
aI12079
aI12080
aI12084
aI12085
aI12089
aI12090
aI12092
aI12096
aI12098
aI12100
aI12102
aI12103
aI12105
aI12108
aI12111
aI12112
aI12114
aI12117
aI12118
aI12119
aI12120
aI12121
aI12122
aI12123
aI12124
aI12125
aI12132
aI12140
aI12141
aI12142
aI12146
aI12149
aI12150
aI12154
aI12156
aI12160
aI12167
aI12168
aI12170
aI12171
aI12175
aI12180
aI12182
aI12183
aI12184
aI12186
aI12188
aI12190
aI12191
aI12194
aI12196
aI12197
aI12198
aI12200
aI12202
aI12204
aI12205
aI12207
aI12208
aI12209
aI12210
aI12211
aI12214
aI12218
aI12219
aI12220
aI12222
aI12230
aI12233
aI12235
aI12236
aI12237
aI12239
aI12240
aI12243
aI12244
aI12246
aI12248
aI12249
aI12250
aI12254
aI12255
aI12258
aI12260
aI12262
aI12263
aI12264
aI12265
aI12266
aI12267
aI12268
aI12272
aI12273
aI12280
aI12284
aI12285
aI12286
aI12288
aI12290
aI12300
aI12303
aI12305
aI12307
aI12308
aI12310
aI12311
aI12316
aI12317
aI12318
aI12319
aI12320
aI12321
aI12322
aI12324
aI12328
aI12330
aI12331
aI12333
aI12334
aI12339
aI12340
aI12342
aI12345
aI12347
aI12350
aI12351
aI12355
aI12357
aI12360
aI12365
aI12367
aI12368
aI12371
aI12372
aI12375
aI12376
aI12379
aI12381
aI12382
aI12383
aI12384
aI12388
aI12392
aI12394
aI12396
aI12398
aI12399
aI12400
aI12404
aI12406
aI12408
aI12409
aI12410
aI12411
aI12414
aI12415
aI12416
aI12419
aI12420
aI12421
aI12425
aI12426
aI12428
aI12430
aI12433
aI12434
aI12436
aI12437
aI12438
aI12442
aI12443
aI12445
aI12447
aI12450
aI12452
aI12454
aI12456
aI12460
aI12461
aI12463
aI12466
aI12468
aI12474
aI12475
aI12477
aI12478
aI12479
aI12480
aI12484
aI12486
aI12487
aI12488
aI12489
aI12490
aI12491
aI12493
aI12495
aI12496
aI12499
aI12500
aI12501
aI12502
aI12503
aI12505
aI12506
aI12509
aI12510
aI12511
aI12514
aI12515
aI12519
aI12520
aI12523
aI12528
aI12530
aI12532
aI12533
aI12534
aI12535
aI12538
aI12540
aI12541
aI12544
aI12548
aI12549
aI12550
aI12551
aI12556
aI12559
aI12560
aI12561
aI12564
aI12569
aI12570
aI12571
aI12573
aI12575
aI12576
aI12578
aI12580
aI12581
aI12582
aI12583
aI12584
aI12587
aI12588
aI12589
aI12591
aI12593
aI12597
aI12600
aI12603
aI12605
aI12606
aI12608
aI12609
aI12610
aI12612
aI12613
aI12615
aI12617
aI12619
aI12624
aI12625
aI12628
aI12630
aI12632
aI12633
aI12636
aI12637
aI12639
aI12641
aI12642
aI12644
aI12648
aI12649
aI12650
aI12653
aI12654
aI12655
aI12658
aI12660
aI12664
aI12667
aI12668
aI12670
aI12671
aI12672
aI12675
aI12678
aI12679
aI12680
aI12683
aI12685
aI12686
aI12688
aI12690
aI12691
aI12693
aI12694
aI12697
aI12698
aI12700
aI12701
aI12704
aI12706
aI12708
aI12709
aI12712
aI12713
aI12715
aI12716
aI12718
aI12719
aI12720
aI12722
aI12725
aI12729
aI12730
aI12731
aI12732
aI12734
aI12737
aI12739
aI12740
aI12750
aI12751
aI12752
aI12756
aI12759
aI12760
aI12761
aI12762
aI12763
aI12765
aI12766
aI12768
aI12769
aI12770
aI12772
aI12774
aI12775
aI12777
aI12779
aI12780
aI12784
aI12785
aI12787
aI12790
aI12791
aI12792
aI12796
aI12797
aI12798
aI12799
aI12800
aI12804
aI12811
aI12815
aI12816
aI12820
aI12821
aI12823
aI12824
aI12825
aI12828
aI12830
aI12836
aI12839
aI12840
aI12841
aI12842
aI12843
aI12847
aI12852
aI12855
aI12858
aI12861
aI12870
aI12872
aI12873
aI12876
aI12878
aI12879
aI12880
aI12885
aI12887
aI12888
aI12891
aI12892
aI12895
aI12896
aI12900
aI12904
aI12909
aI12912
aI12915
aI12919
aI12920
aI12921
aI12923
aI12924
aI12926
aI12927
aI12928
aI12930
aI12932
aI12933
aI12934
aI12935
aI12936
aI12937
aI12938
aI12940
aI12944
aI12945
aI12948
aI12950
aI12951
aI12957
aI12958
aI12960
aI12963
aI12964
aI12965
aI12968
aI12969
aI12975
aI12978
aI12980
aI12987
aI12989
aI12991
aI12996
aI12998
aI13000
aI13002
aI13004
aI13005
aI13006
aI13007
aI13008
aI13010
aI13011
aI13013
aI13015
aI13020
aI13021
aI13024
aI13025
aI13028
aI13032
aI13033
aI13034
aI13035
aI13037
aI13038
aI13040
aI13041
aI13047
aI13048
aI13049
aI13050
aI13054
aI13055
aI13056
aI13063
aI13064
aI13065
aI13067
aI13069
aI13070
aI13075
aI13078
aI13080
aI13082
aI13085
aI13086
aI13090
aI13097
aI13098
aI13099
aI13100
aI13104
aI13107
aI13108
aI13110
aI13111
aI13115
aI13119
aI13123
aI13124
aI13125
aI13126
aI13127
aI13128
aI13130
aI13131
aI13137
aI13140
aI13141
aI13147
aI13148
aI13149
aI13150
aI13151
aI13154
aI13156
aI13158
aI13159
aI13160
aI13162
aI13163
aI13165
aI13168
aI13169
aI13170
aI13179
aI13182
aI13186
aI13192
aI13193
aI13197
aI13199
aI13200
aI13201
aI13203
aI13208
aI13210
aI13211
aI13212
aI13213
aI13214
aI13215
aI13216
aI13218
aI13219
aI13220
aI13221
aI13222
aI13224
aI13225
aI13226
aI13228
aI13230
aI13232
aI13236
aI13239
aI13240
aI13244
aI13245
aI13246
aI13247
aI13248
aI13249
aI13250
aI13251
aI13253
aI13254
aI13258
aI13260
aI13268
aI13270
aI13271
aI13272
aI13274
aI13275
aI13276
aI13280
aI13283
aI13288
aI13294
aI13297
aI13298
aI13300
aI13302
aI13304
aI13306
aI13308
aI13312
aI13313
aI13316
aI13318
aI13320
aI13324
aI13325
aI13326
aI13328
aI13331
aI13332
aI13333
aI13335
aI13336
aI13337
aI13338
aI13339
aI13340
aI13348
aI13349
aI13350
aI13354
aI13355
aI13356
aI13357
aI13358
aI13364
aI13365
aI13366
aI13367
aI13369
aI13370
aI13373
aI13374
aI13375
aI13376
aI13377
aI13378
aI13379
aI13381
aI13383
aI13384
aI13387
aI13388
aI13391
aI13392
aI13394
aI13397
aI13399
aI13400
aI13402
aI13405
aI13410
aI13412
aI13413
aI13414
aI13415
aI13416
aI13417
aI13420
aI13421
aI13422
aI13423
aI13425
aI13428
aI13429
aI13430
aI13431
aI13436
aI13439
aI13440
aI13444
aI13447
aI13448
aI13450
aI13452
aI13455
aI13456
aI13457
aI13458
aI13460
aI13462
aI13467
aI13468
aI13470
aI13472
aI13475
aI13476
aI13477
aI13479
aI13480
aI13481
aI13483
aI13486
aI13488
aI13489
aI13490
aI13491
aI13495
aI13496
aI13498
aI13499
aI13500
aI13501
aI13502
aI13504
aI13506
aI13508
aI13512
aI13513
aI13516
aI13517
aI13518
aI13520
aI13522
aI13523
aI13524
aI13525
aI13528
aI13531
aI13533
aI13534
aI13536
aI13538
aI13540
aI13541
aI13543
aI13544
aI13545
aI13547
aI13548
aI13549
aI13550
aI13553
aI13556
aI13557
aI13560
aI13561
aI13562
aI13563
aI13571
aI13572
aI13575
aI13579
aI13580
aI13581
aI13584
aI13585
aI13588
aI13589
aI13590
aI13592
aI13593
aI13594
aI13596
aI13597
aI13599
aI13600
aI13602
aI13605
aI13606
aI13612
aI13613
aI13615
aI13616
aI13617
aI13620
aI13621
aI13622
aI13625
aI13626
aI13627
aI13628
aI13629
aI13630
aI13632
aI13636
aI13640
aI13644
aI13646
aI13649
aI13650
aI13657
aI13659
aI13660
aI13666
aI13667
aI13668
aI13675
aI13676
aI13677
aI13680
aI13682
aI13685
aI13686
aI13687
aI13688
aI13690
aI13697
aI13700
aI13702
aI13704
aI13707
aI13708
aI13710
aI13712
aI13714
aI13716
aI13718
aI13719
aI13720
aI13721
aI13722
aI13724
aI13725
aI13728
aI13729
aI13730
aI13731
aI13734
aI13735
aI13736
aI13745
aI13750
aI13751
aI13753
aI13755
aI13758
aI13759
aI13760
aI13762
aI13763
aI13767
aI13768
aI13769
aI13770
aI13776
aI13778
aI13782
aI13783
aI13786
aI13790
aI13791
aI13793
aI13795
aI13796
aI13800
aI13802
aI13805
aI13807
aI13808
aI13811
aI13812
aI13813
aI13814
aI13816
aI13818
aI13819
aI13820
aI13823
aI13824
aI13825
aI13829
aI13831
aI13832
aI13835
aI13836
aI13837
aI13838
aI13840
aI13841
aI13842
aI13843
aI13845
aI13850
aI13856
aI13857
aI13860
aI13861
aI13866
aI13868
aI13869
aI13870
aI13871
aI13872
aI13875
aI13879
aI13880
aI13882
aI13884
aI13885
aI13887
aI13888
aI13896
aI13898
aI13900
aI13901
aI13903
aI13905
aI13908
aI13910
aI13912
aI13916
aI13920
aI13926
aI13930
aI13932
aI13933
aI13935
aI13936
aI13940
aI13941
aI13944
aI13945
aI13946
aI13952
aI13954
aI13955
aI13959
aI13960
aI13961
aI13963
aI13965
aI13967
aI13969
aI13970
aI13973
aI13976
aI13978
aI13980
aI13986
aI13988
aI13991
aI13993
aI13996
aI13997
aI13998
aI14000
aI14003
aI14004
aI14005
aI14006
aI14007
aI14008
aI14009
aI14010
aI14012
aI14013
aI14014
aI14015
aI14016
aI14017
aI14019
aI14020
aI14022
aI14024
aI14025
aI14027
aI14028
aI14032
aI14033
aI14035
aI14036
aI14039
aI14040
aI14041
aI14042
aI14043
aI14046
aI14047
aI14049
aI14050
aI14051
aI14053
aI14054
aI14055
aI14057
aI14058
aI14060
aI14061
aI14062
aI14068
aI14070
aI14071
aI14075
aI14077
aI14078
aI14080
aI14081
aI14082
aI14088
aI14094
aI14095
aI14096
aI14098
aI14099
aI14100
aI14101
aI14105
aI14107
aI14112
aI14115
aI14116
aI14117
aI14118
aI14119
aI14120
aI14121
aI14122
aI14123
aI14125
aI14126
aI14130
aI14131
aI14132
aI14135
aI14136
aI14137
aI14139
aI14140
aI14141
aI14143
aI14144
aI14147
aI14148
aI14150
aI14153
aI14159
aI14160
aI14161
aI14162
aI14164
aI14166
aI14167
aI14170
aI14173
aI14175
aI14177
aI14178
aI14180
aI14181
aI14185
aI14189
aI14190
aI14194
aI14195
aI14196
aI14198
aI14199
aI14200
aI14203
aI14204
aI14205
aI14206
aI14211
aI14213
aI14214
aI14218
aI14220
aI14222
aI14224
aI14227
aI14230
aI14231
aI14233
aI14235
aI14237
aI14239
aI14240
aI14242
aI14243
aI14244
aI14248
aI14250
aI14255
aI14258
aI14259
aI14260
aI14263
aI14264
aI14265
aI14268
aI14270
aI14271
aI14272
aI14273
aI14274
aI14275
aI14276
aI14280
aI14282
aI14284
aI14285
aI14286
aI14287
aI14289
aI14290
aI14291
aI14292
aI14294
aI14297
aI14299
aI14300
aI14301
aI14304
aI14305
aI14306
aI14310
aI14311
aI14316
aI14318
aI14320
aI14321
aI14324
aI14325
aI14327
aI14330
aI14331
aI14332
aI14333
aI14339
aI14340
aI14344
aI14345
aI14349
aI14352
aI14354
aI14361
aI14363
aI14365
aI14367
aI14368
aI14369
aI14374
aI14376
aI14377
aI14378
aI14379
aI14380
aI14382
aI14388
aI14389
aI14390
aI14393
aI14398
aI14400
aI14404
aI14406
aI14409
aI14410
aI14412
aI14413
aI14414
aI14416
aI14418
aI14419
aI14420
aI14421
aI14424
aI14425
aI14426
aI14430
aI14434
aI14435
aI14436
aI14437
aI14438
aI14440
aI14442
aI14443
aI14445
aI14446
aI14447
aI14448
aI14450
aI14454
aI14456
aI14458
aI14459
aI14460
aI14462
aI14465
aI14467
aI14468
aI14470
aI14471
aI14472
aI14474
aI14477
aI14480
aI14481
aI14482
aI14483
aI14484
aI14486
aI14489
aI14490
aI14492
aI14496
aI14497
aI14498
aI14500
aI14503
aI14505
aI14506
aI14507
aI14508
aI14512
aI14513
aI14519
aI14520
aI14521
aI14523
aI14524
aI14530
aI14540
aI14542
aI14544
aI14545
aI14548
aI14549
aI14550
aI14551
aI14553
aI14555
aI14556
aI14558
aI14560
aI14561
aI14564
aI14565
aI14566
aI14568
aI14569
aI14570
aI14574
aI14576
aI14578
aI14581
aI14582
aI14584
aI14585
aI14586
aI14588
aI14589
aI14590
aI14592
aI14595
aI14596
aI14597
aI14598
aI14600
aI14608
aI14619
aI14621
aI14626
aI14628
aI14630
aI14633
aI14635
aI14640
aI14641
aI14644
aI14646
aI14647
aI14649
aI14650
aI14651
aI14652
aI14658
aI14660
aI14664
aI14665
aI14666
aI14667
aI14668
aI14669
aI14670
aI14671
aI14672
aI14674
aI14675
aI14676
aI14677
aI14679
aI14680
aI14685
aI14686
aI14690
aI14692
aI14695
aI14700
aI14704
aI14705
aI14707
aI14710
aI14715
aI14716
aI14717
aI14720
aI14722
aI14724
aI14726
aI14728
aI14729
aI14730
aI14735
aI14736
aI14738
aI14739
aI14740
aI14743
aI14744
aI14746
aI14747
aI14748
aI14750
aI14751
aI14753
aI14758
aI14759
aI14760
aI14768
aI14769
aI14772
aI14773
aI14775
aI14776
aI14777
aI14778
aI14780
aI14786
aI14787
aI14789
aI14791
aI14795
aI14797
aI14799
aI14800
aI14802
aI14803
aI14804
aI14807
aI14808
aI14811
aI14812
aI14814
aI14815
aI14816
aI14817
aI14820
aI14822
aI14823
aI14825
aI14827
aI14829
aI14830
aI14832
aI14833
aI14840
aI14847
aI14848
aI14849
aI14850
aI14851
aI14852
aI14854
aI14855
aI14856
aI14860
aI14861
aI14862
aI14867
aI14869
aI14872
aI14876
aI14878
aI14879
aI14880
aI14884
aI14888
aI14889
aI14891
aI14892
aI14893
aI14900
aI14901
aI14902
aI14904
aI14907
aI14908
aI14910
aI14911
aI14914
aI14916
aI14918
aI14919
aI14922
aI14924
aI14926
aI14928
aI14930
aI14933
aI14934
aI14937
aI14941
aI14942
aI14945
aI14948
aI14949
aI14950
aI14951
aI14954
aI14955
aI14959
aI14960
aI14962
aI14963
aI14964
aI14974
aI14976
aI14977
aI14979
aI14980
aI14981
aI14983
aI14984
aI14985
aI14988
aI14993
aI14994
aI14996
aI14997
aI15000
aI15003
aI15005
aI15006
aI15008
aI15009
aI15010
aI15012
aI15013
aI15015
aI15017
aI15018
aI15019
aI15020
aI15023
aI15024
aI15025
aI15026
aI15030
aI15032
aI15037
aI15038
aI15039
aI15040
aI15041
aI15044
aI15045
aI15048
aI15049
aI15050
aI15051
aI15052
aI15053
aI15055
aI15056
aI15057
aI15059
aI15060
aI15062
aI15064
aI15066
aI15067
aI15068
aI15070
aI15072
aI15075
aI15076
aI15080
aI15083
aI15085
aI15086
aI15088
aI15089
aI15090
aI15092
aI15093
aI15094
aI15098
aI15099
aI15100
aI15103
aI15104
aI15107
aI15110
aI15111
aI15112
aI15120
aI15122
aI15124
aI15128
aI15131
aI15133
aI15137
aI15144
aI15146
aI15147
aI15148
aI15149
aI15150
aI15152
aI15156
aI15157
aI15160
aI15161
aI15165
aI15167
aI15168
aI15170
aI15173
aI15175
aI15179
aI15180
aI15181
aI15185
aI15186
aI15192
aI15197
aI15198
aI15200
aI15202
aI15205
aI15208
aI15213
aI15216
aI15220
aI15225
aI15228
aI15229
aI15231
aI15232
aI15233
aI15239
aI15240
aI15244
aI15246
aI15247
aI15248
aI15250
aI15252
aI15253
aI15254
aI15255
aI15256
aI15257
aI15259
aI15260
aI15261
aI15262
aI15263
aI15264
aI15265
aI15267
aI15275
aI15276
aI15277
aI15278
aI15279
aI15280
aI15281
aI15285
aI15288
aI15292
aI15293
aI15294
aI15297
aI15300
aI15302
aI15304
aI15308
aI15310
aI15313
aI15320
aI15322
aI15324
aI15326
aI15328
aI15329
aI15330
aI15331
aI15332
aI15333
aI15336
aI15338
aI15341
aI15343
aI15344
aI15345
aI15348
aI15350
aI15352
aI15353
aI15358
aI15359
aI15360
aI15361
aI15362
aI15365
aI15367
aI15369
aI15370
aI15372
aI15373
aI15375
aI15376
aI15378
aI15382
aI15383
aI15384
aI15385
aI15391
aI15392
aI15395
aI15397
aI15399
aI15400
aI15402
aI15404
aI15408
aI15410
aI15411
aI15412
aI15415
aI15416
aI15420
aI15422
aI15429
aI15430
aI15440
aI15441
aI15442
aI15447
aI15450
aI15454
aI15455
aI15456
aI15457
aI15458
aI15459
aI15462
aI15465
aI15467
aI15469
aI15470
aI15472
aI15473
aI15477
aI15479
aI15480
aI15483
aI15484
aI15486
aI15488
aI15489
aI15491
aI15494
aI15495
aI15496
aI15500
aI15503
aI15506
aI15508
aI15509
aI15510
aI15513
aI15515
aI15518
aI15520
aI15521
aI15522
aI15525
aI15526
aI15530
aI15535
aI15536
aI15537
aI15539
aI15540
aI15544
aI15548
aI15549
aI15550
aI15552
aI15553
aI15554
aI15555
aI15556
aI15558
aI15560
aI15561
aI15562
aI15567
aI15570
aI15573
aI15574
aI15575
aI15576
aI15577
aI15579
aI15580
aI15581
aI15584
aI15587
aI15588
aI15590
aI15594
aI15597
aI15598
aI15600
aI15602
aI15603
aI15604
aI15607
aI15608
aI15610
aI15612
aI15614
aI15616
aI15619
aI15620
aI15625
aI15629
aI15630
aI15632
aI15634
aI15640
aI15644
aI15645
aI15647
aI15650
aI15652
aI15653
aI15655
aI15656
aI15664
aI15667
aI15669
aI15672
aI15673
aI15674
aI15675
aI15680
aI15686
aI15687
aI15689
aI15690
aI15693
aI15696
aI15699
aI15700
aI15702
aI15704
aI15705
aI15706
aI15714
aI15716
aI15717
aI15718
aI15720
aI15725
aI15726
aI15729
aI15732
aI15734
aI15735
aI15736
aI15737
aI15739
aI15740
aI15741
aI15745
aI15746
aI15747
aI15750
aI15751
aI15753
aI15755
aI15756
aI15760
aI15770
aI15774
aI15780
aI15784
aI15785
aI15786
aI15787
aI15789
aI15792
aI15794
aI15795
aI15797
aI15798
aI15799
aI15800
aI15804
aI15805
aI15808
aI15810
aI15811
aI15812
aI15813
aI15815
aI15818
aI15824
aI15825
aI15827
aI15828
aI15829
aI15830
aI15831
aI15834
aI15835
aI15836
aI15840
aI15842
aI15844
aI15846
aI15849
aI15850
aI15852
aI15853
aI15856
aI15859
aI15860
aI15864
aI15865
aI15866
aI15869
aI15871
aI15873
aI15876
aI15877
aI15878
aI15879
aI15880
aI15882
aI15884
aI15888
aI15893
aI15895
aI15899
aI15900
aI15901
aI15909
aI15910
aI15912
aI15914
aI15916
aI15918
aI15920
aI15922
aI15925
aI15926
aI15928
aI15933
aI15938
aI15941
aI15942
aI15943
aI15944
aI15947
aI15949
aI15950
aI15952
aI15954
aI15956
aI15959
aI15960
aI15966
aI15967
aI15968
aI15974
aI15975
aI15976
aI15979
aI15980
aI15982
aI15984
aI15985
aI15987
aI15989
aI15991
aI15993
aI15995
aI15998
aI15999
aI16000
aI16001
aI16005
aI16008
aI16009
aI16010
aI16012
aI16014
aI16015
aI16016
aI16018
aI16019
aI16020
aI16022
aI16023
aI16024
aI16025
aI16026
aI16028
aI16030
aI16032
aI16033
aI16035
aI16037
aI16040
aI16043
aI16044
aI16045
aI16048
aI16050
aI16051
aI16052
aI16053
aI16054
aI16055
aI16056
aI16057
aI16058
aI16060
aI16067
aI16069
aI16071
aI16072
aI16075
aI16080
aI16088
aI16095
aI16096
aI16100
aI16104
aI16105
aI16107
aI16108
aI16110
aI16112
aI16113
aI16115
aI16116
aI16117
aI16118
aI16119
aI16120
aI16122
aI16125
aI16133
aI16134
aI16135
aI16136
aI16137
aI16138
aI16139
aI16140
aI16143
aI16144
aI16145
aI16150
aI16152
aI16153
aI16155
aI16157
aI16160
aI16161
aI16162
aI16164
aI16166
aI16170
aI16172
aI16174
aI16175
aI16177
aI16179
aI16180
aI16182
aI16183
aI16185
aI16186
aI16190
aI16192
aI16193
aI16194
aI16196
aI16200
aI16201
aI16204
aI16205
aI16206
aI16207
aI16208
aI16210
aI16214
aI16215
aI16216
aI16221
aI16222
aI16223
aI16224
aI16225
aI16227
aI16229
aI16230
aI16233
aI16238
aI16240
aI16242
aI16243
aI16244
aI16246
aI16248
aI16250
aI16253
aI16254
aI16255
aI16256
aI16257
aI16259
aI16263
aI16268
aI16269
aI16270
aI16271
aI16272
aI16275
aI16276
aI16277
aI16278
aI16279
aI16280
aI16281
aI16282
aI16285
aI16286
aI16287
aI16288
aI16289
aI16292
aI16294
aI16295
aI16296
aI16297
aI16298
aI16300
aI16307
aI16308
aI16310
aI16311
aI16313
aI16318
aI16320
aI16321
aI16322
aI16325
aI16327
aI16329
aI16330
aI16332
aI16333
aI16334
aI16335
aI16336
aI16342
aI16343
aI16344
aI16345
aI16350
aI16352
aI16353
aI16355
aI16356
aI16360
aI16368
aI16370
aI16374
aI16375
aI16379
aI16380
aI16381
aI16389
aI16390
aI16392
aI16394
aI16397
aI16400
aI16402
aI16404
aI16406
aI16408
aI16409
aI16413
aI16416
aI16421
aI16422
aI16425
aI16427
aI16429
aI16430
aI16431
aI16432
aI16435
aI16436
aI16437
aI16439
aI16440
aI16444
aI16446
aI16447
aI16449
aI16450
aI16456
aI16464
aI16465
aI16468
aI16470
aI16471
aI16475
aI16476
aI16478
aI16481
aI16482
aI16483
aI16484
aI16487
aI16494
aI16497
aI16498
aI16500
aI16501
aI16502
aI16503
aI16506
aI16507
aI16508
aI16509
aI16510
aI16514
aI16516
aI16518
aI16520
aI16523
aI16530
aI16534
aI16536
aI16544
aI16548
aI16550
aI16554
aI16555
aI16557
aI16560
aI16562
aI16564
aI16565
aI16575
aI16580
aI16586
aI16588
aI16589
aI16590
aI16593
aI16594
aI16595
aI16600
aI16602
aI16605
aI16606
aI16609
aI16610
aI16612
aI16613
aI16616
aI16617
aI16620
aI16623
aI16625
aI16627
aI16628
aI16630
aI16635
aI16639
aI16640
aI16644
aI16646
aI16647
aI16648
aI16650
aI16652
aI16657
aI16658
aI16659
aI16660
aI16664
aI16667
aI16670
aI16671
aI16673
aI16674
aI16679
aI16680
aI16685
aI16688
aI16689
aI16690
aI16697
aI16698
aI16700
aI16703
aI16710
aI16714
aI16717
aI16718
aI16720
aI16723
aI16726
aI16727
aI16732
aI16735
aI16736
aI16739
aI16740
aI16743
aI16744
aI16745
aI16747
aI16750
aI16752
aI16754
aI16758
aI16760
aI16761
aI16762
aI16765
aI16766
aI16768
aI16771
aI16772
aI16773
aI16774
aI16779
aI16781
aI16784
aI16786
aI16788
aI16791
aI16792
aI16796
aI16797
aI16798
aI16800
aI16801
aI16802
aI16803
aI16804
aI16805
aI16806
aI16808
aI16809
aI16812
aI16816
aI16818
aI16819
aI16820
aI16822
aI16823
aI16825
aI16828
aI16832
aI16833
aI16836
aI16839
aI16840
aI16842
aI16846
aI16847
aI16848
aI16849
aI16850
aI16851
aI16852
aI16857
aI16858
aI16860
aI16861
aI16862
aI16863
aI16865
aI16867
aI16870
aI16874
aI16875
aI16876
aI16879
aI16880
aI16881
aI16882
aI16885
aI16890
aI16892
aI16895
aI16896
aI16897
aI16898
aI16900
aI16907
aI16908
aI16909
aI16910
aI16911
aI16912
aI16918
aI16920
aI16923
aI16924
aI16925
aI16926
aI16927
aI16929
aI16930
aI16932
aI16933
aI16934
aI16935
aI16936
aI16940
aI16947
aI16948
aI16950
aI16952
aI16953
aI16955
aI16956
aI16959
aI16960
aI16963
aI16964
aI16968
aI16971
aI16976
aI16978
aI16980
aI16981
aI16983
aI16990
aI16994
aI16996
aI16999
aI17000
aI17002
aI17003
aI17004
aI17006
aI17007
aI17008
aI17009
aI17010
aI17011
aI17012
aI17015
aI17016
aI17017
aI17020
aI17022
aI17025
aI17027
aI17030
aI17032
aI17033
aI17036
aI17038
aI17039
aI17040
aI17043
aI17047
aI17050
aI17051
aI17053
aI17056
aI17057
aI17059
aI17060
aI17063
aI17064
aI17066
aI17069
aI17070
aI17072
aI17073
aI17074
aI17080
aI17082
aI17085
aI17086
aI17088
aI17089
aI17090
aI17091
aI17097
aI17098
aI17100
aI17101
aI17102
aI17103
aI17104
aI17105
aI17106
aI17108
aI17113
aI17114
aI17116
aI17118
aI17120
aI17124
aI17125
aI17126
aI17129
aI17130
aI17131
aI17132
aI17136
aI17137
aI17139
aI17140
aI17141
aI17142
aI17144
aI17146
aI17148
aI17150
aI17151
aI17152
aI17154
aI17160
aI17161
aI17170
aI17173
aI17175
aI17178
aI17180
aI17183
aI17184
aI17187
aI17188
aI17189
aI17190
aI17191
aI17194
aI17195
aI17196
aI17197
aI17198
aI17199
aI17200
aI17201
aI17203
aI17210
aI17212
aI17213
aI17216
aI17220
aI17223
aI17225
aI17228
aI17231
aI17232
aI17233
aI17240
aI17244
aI17245
aI17250
aI17251
aI17254
aI17257
aI17267
aI17270
aI17271
aI17272
aI17274
aI17280
aI17284
aI17288
aI17290
aI17292
aI17296
aI17299
aI17300
aI17302
aI17303
aI17304
aI17305
aI17306
aI17309
aI17311
aI17317
aI17322
aI17325
aI17327
aI17328
aI17330
aI17333
aI17335
aI17338
aI17341
aI17342
aI17343
aI17344
aI17348
aI17350
aI17351
aI17352
aI17354
aI17355
aI17357
aI17358
aI17359
aI17360
aI17365
aI17366
aI17368
aI17370
aI17371
aI17372
aI17374
aI17381
aI17382
aI17384
aI17387
aI17390
aI17394
aI17398
aI17399
aI17400
aI17401
aI17404
aI17405
aI17406
aI17407
aI17408
aI17409
aI17410
aI17412
aI17414
aI17415
aI17417
aI17418
aI17420
aI17424
aI17426
aI17430
aI17438
aI17440
aI17442
aI17444
aI17449
aI17450
aI17452
aI17454
aI17459
aI17463
aI17466
aI17467
aI17468
aI17472
aI17476
aI17480
aI17481
aI17482
aI17485
aI17487
aI17489
aI17490
aI17493
aI17495
aI17498
aI17500
aI17502
aI17503
aI17504
aI17505
aI17507
aI17508
aI17509
aI17513
aI17514
aI17515
aI17516
aI17518
aI17520
aI17523
aI17525
aI17528
aI17532
aI17534
aI17535
aI17538
aI17540
aI17542
aI17544
aI17546
aI17548
aI17550
aI17552
aI17555
aI17556
aI17559
aI17560
aI17563
aI17569
aI17573
aI17575
aI17576
aI17578
aI17579
aI17582
aI17586
aI17590
aI17591
aI17592
aI17593
aI17597
aI17598
aI17600
aI17602
aI17603
aI17604
aI17605
aI17609
aI17610
aI17612
aI17618
aI17620
aI17622
aI17625
aI17628
aI17629
aI17632
aI17635
aI17638
aI17640
aI17642
aI17647
aI17651
aI17657
aI17659
aI17660
aI17662
aI17663
aI17669
aI17670
aI17675
aI17678
aI17680
aI17683
aI17685
aI17689
aI17692
aI17695
aI17697
aI17699
aI17700
aI17706
aI17710
aI17717
aI17720
aI17722
aI17727
aI17728
aI17730
aI17732
aI17735
aI17736
aI17737
aI17738
aI17741
aI17743
aI17745
aI17749
aI17750
aI17760
aI17762
aI17764
aI17765
aI17767
aI17770
aI17773
aI17776
aI17780
aI17782
aI17784
aI17785
aI17789
aI17790
aI17794
aI17796
aI17800
aI17803
aI17805
aI17808
aI17810
aI17812
aI17815
aI17816
aI17817
aI17820
aI17825
aI17826
aI17831
aI17834
aI17835
aI17836
aI17837
aI17840
aI17841
aI17842
aI17843
aI17845
aI17848
aI17850
aI17854
aI17858
aI17861
aI17865
aI17866
aI17867
aI17869
aI17870
aI17872
aI17875
aI17880
aI17882
aI17883
aI17888
aI17890
aI17891
aI17892
aI17897
aI17898
aI17900
aI17903
aI17906
aI17909
aI17912
aI17914
aI17920
aI17921
aI17922
aI17927
aI17928
aI17930
aI17934
aI17935
aI17938
aI17939
aI17940
aI17949
aI17950
aI17956
aI17958
aI17961
aI17963
aI17964
aI17970
aI17971
aI17976
aI17979
aI17980
aI17983
aI17984
aI17985
aI17987
aI17988
aI17989
aI17992
aI17995
aI17996
aI17998
aI17999
aI18000
aI18002
aI18005
aI18006
aI18008
aI18009
aI18010
aI18011
aI18012
aI18013
aI18014
aI18015
aI18019
aI18020
aI18027
aI18032
aI18033
aI18040
aI18044
aI18046
aI18048
aI18050
aI18052
aI18053
aI18061
aI18064
aI18068
aI18069
aI18071
aI18074
aI18075
aI18079
aI18083
aI18085
aI18095
aI18096
aI18100
aI18101
aI18103
aI18109
aI18111
aI18113
aI18115
aI18116
aI18117
aI18119
aI18120
aI18121
aI18122
aI18125
aI18126
aI18128
aI18132
aI18138
aI18139
aI18141
aI18144
aI18146
aI18147
aI18150
aI18152
aI18154
aI18155
aI18157
aI18159
aI18163
aI18166
aI18167
aI18170
aI18171
aI18175
aI18179
aI18180
aI18187
aI18188
aI18192
aI18198
aI18200
aI18203
aI18206
aI18210
aI18212
aI18217
aI18219
aI18220
aI18221
aI18224
aI18225
aI18230
aI18234
aI18235
aI18236
aI18239
aI18240
aI18244
aI18246
aI18247
aI18249
aI18250
aI18251
aI18252
aI18260
aI18262
aI18264
aI18265
aI18266
aI18267
aI18268
aI18269
aI18270
aI18271
aI18272
aI18275
aI18277
aI18278
aI18280
aI18281
aI18283
aI18284
aI18288
aI18296
aI18299
aI18300
aI18301
aI18304
aI18309
aI18312
aI18315
aI18319
aI18320
aI18322
aI18327
aI18328
aI18333
aI18334
aI18335
aI18337
aI18339
aI18341
aI18344
aI18345
aI18351
aI18353
aI18354
aI18356
aI18366
aI18368
aI18369
aI18378
aI18380
aI18381
aI18383
aI18385
aI18387
aI18388
aI18390
aI18391
aI18393
aI18397
aI18399
aI18400
aI18401
aI18402
aI18406
aI18408
aI18410
aI18418
aI18425
aI18426
aI18429
aI18431
aI18432
aI18434
aI18436
aI18439
aI18440
aI18441
aI18442
aI18444
aI18450
aI18452
aI18453
aI18455
aI18459
aI18465
aI18467
aI18469
aI18470
aI18472
aI18474
aI18475
aI18480
aI18482
aI18484
aI18494
aI18497
aI18500
aI18503
aI18505
aI18506
aI18512
aI18517
aI18518
aI18520
aI18523
aI18525
aI18528
aI18530
aI18533
aI18538
aI18540
aI18542
aI18546
aI18548
aI18550
aI18558
aI18559
aI18560
aI18561
aI18562
aI18567
aI18568
aI18572
aI18573
aI18575
aI18578
aI18581
aI18582
aI18583
aI18586
aI18588
aI18590
aI18591
aI18592
aI18597
aI18598
aI18600
aI18604
aI18605
aI18608
aI18609
aI18610
aI18612
aI18616
aI18617
aI18618
aI18620
aI18621
aI18623
aI18627
aI18629
aI18632
aI18636
aI18637
aI18638
aI18640
aI18641
aI18642
aI18643
aI18646
aI18650
aI18654
aI18657
aI18658
aI18659
aI18660
aI18666
aI18667
aI18670
aI18675
aI18676
aI18677
aI18678
aI18679
aI18680
aI18681
aI18686
aI18690
aI18692
aI18694
aI18697
aI18700
aI18704
aI18705
aI18709
aI18714
aI18717
aI18718
aI18720
aI18723
aI18724
aI18725
aI18727
aI18730
aI18731
aI18732
aI18733
aI18736
aI18737
aI18738
aI18740
aI18741
aI18745
aI18747
aI18750
aI18751
aI18752
aI18754
aI18756
aI18758
aI18760
aI18761
aI18765
aI18768
aI18770
aI18771
aI18772
aI18774
aI18775
aI18779
aI18780
aI18783
aI18786
aI18788
aI18789
aI18790
aI18791
aI18792
aI18795
aI18796
aI18800
aI18807
aI18808
aI18812
aI18813
aI18815
aI18816
aI18820
aI18824
aI18825
aI18826
aI18827
aI18829
aI18833
aI18835
aI18837
aI18838
aI18843
aI18844
aI18845
aI18849
aI18850
aI18857
aI18859
aI18863
aI18864
aI18866
aI18867
aI18870
aI18875
aI18876
aI18877
aI18883
aI18885
aI18886
aI18887
aI18889
aI18890
aI18893
aI18894
aI18900
aI18902
aI18907
aI18910
aI18912
aI18914
aI18915
aI18918
aI18919
aI18920
aI18922
aI18928
aI18929
aI18932
aI18936
aI18937
aI18943
aI18944
aI18945
aI18946
aI18948
aI18950
aI18952
aI18953
aI18954
aI18956
aI18960
aI18964
aI18966
aI18970
aI18972
aI18978
aI18980
aI18985
aI18987
aI18988
aI18989
aI18990
aI18992
aI18995
aI19000
aI19003
aI19007
aI19008
aI19012
aI19014
aI19015
aI19018
aI19019
aI19020
aI19023
aI19025
aI19026
aI19028
aI19032
aI19033
aI19034
aI19037
aI19038
aI19040
aI19043
aI19050
aI19051
aI19053
aI19055
aI19057
aI19058
aI19060
aI19062
aI19064
aI19065
aI19066
aI19069
aI19074
aI19075
aI19076
aI19079
aI19081
aI19082
aI19084
aI19087
aI19088
aI19090
aI19091
aI19092
aI19094
aI19096
aI19097
aI19100
aI19105
aI19108
aI19109
aI19110
aI19116
aI19120
aI19123
aI19124
aI19126
aI19127
aI19136
aI19138
aI19140
aI19142
aI19143
aI19144
aI19145
aI19147
aI19148
aI19152
aI19154
aI19155
aI19156
aI19160
aI19163
aI19165
aI19167
aI19169
aI19170
aI19173
aI19178
aI19179
aI19180
aI19183
aI19184
aI19188
aI19189
aI19190
aI19193
aI19198
aI19199
aI19200
aI19206
aI19208
aI19213
aI19215
aI19216
aI19219
aI19220
aI19225
aI19228
aI19229
aI19232
aI19233
aI19234
aI19236
aI19238
aI19239
aI19240
aI19241
aI19242
aI19244
aI19247
aI19249
aI19250
aI19251
aI19252
aI19253
aI19254
aI19255
aI19256
aI19265
aI19267
aI19272
aI19273
aI19277
aI19279
aI19280
aI19281
aI19285
aI19292
aI19295
aI19296
aI19297
aI19298
aI19300
aI19303
aI19304
aI19305
aI19306
aI19310
aI19315
aI19318
aI19320
aI19321
aI19322
aI19323
aI19324
aI19328
aI19330
aI19331
aI19333
aI19335
aI19336
aI19340
aI19341
aI19342
aI19344
aI19347
aI19348
aI19350
aI19352
aI19353
aI19355
aI19356
aI19361
aI19365
aI19367
aI19369
aI19374
aI19375
aI19381
aI19382
aI19385
aI19389
aI19394
aI19400
aI19407
aI19409
aI19410
aI19412
aI19413
aI19416
aI19417
aI19418
aI19419
aI19420
aI19422
aI19425
aI19426
aI19427
aI19429
aI19431
aI19432
aI19433
aI19438
aI19440
aI19444
aI19445
aI19446
aI19447
aI19448
aI19450
aI19452
aI19458
aI19459
aI19463
aI19464
aI19466
aI19468
aI19469
aI19471
aI19475
aI19477
aI19481
aI19482
aI19483
aI19484
aI19486
aI19488
aI19491
aI19492
aI19494
aI19495
aI19496
aI19497
aI19500
aI19501
aI19502
aI19506
aI19507
aI19510
aI19520
aI19521
aI19522
aI19525
aI19527
aI19528
aI19529
aI19530
aI19537
aI19539
aI19542
aI19545
aI19546
aI19549
aI19550
aI19551
aI19552
aI19553
aI19560
aI19562
aI19565
aI19567
aI19570
aI19571
aI19573
aI19574
aI19575
aI19576
aI19577
aI19578
aI19581
aI19588
aI19590
aI19594
aI19596
aI19598
aI19600
aI19601
aI19603
aI19604
aI19609
aI19619
aI19624
aI19628
aI19630
aI19631
aI19632
aI19635
aI19636
aI19640
aI19642
aI19646
aI19650
aI19651
aI19656
aI19658
aI19660
aI19666
aI19672
aI19673
aI19676
aI19679
aI19680
aI19686
aI19687
aI19688
aI19689
aI19690
aI19692
aI19694
aI19696
aI19698
aI19700
aI19704
aI19705
aI19710
aI19713
aI19716
aI19718
aI19725
aI19728
aI19730
aI19733
aI19737
aI19739
aI19740
aI19744
aI19750
aI19751
aI19753
aI19760
aI19761
aI19764
aI19766
aI19770
aI19775
aI19778
aI19780
aI19781
aI19783
aI19784
aI19785
aI19787
aI19788
aI19791
aI19792
aI19797
aI19798
aI19800
aI19801
aI19802
aI19803
aI19804
aI19806
aI19807
aI19808
aI19809
aI19810
aI19812
aI19816
aI19818
aI19820
aI19822
aI19823
aI19824
aI19828
aI19830
aI19833
aI19835
aI19840
aI19841
aI19843
aI19845
aI19850
aI19853
aI19861
aI19867
aI19868
aI19869
aI19871
aI19873
aI19879
aI19880
aI19882
aI19885
aI19887
aI19888
aI19890
aI19892
aI19894
aI19896
aI19898
aI19900
aI19908
aI19910
aI19913
aI19915
aI19916
aI19917
aI19918
aI19920
aI19921
aI19922
aI19924
aI19925
aI19926
aI19927
aI19930
aI19935
aI19936
aI19937
aI19938
aI19942
aI19945
aI19947
aI19950
aI19953
aI19954
aI19955
aI19958
aI19960
aI19961
aI19962
aI19965
aI19968
aI19969
aI19970
aI19971
aI19975
aI19978
aI19980
aI19981
aI19983
aI19984
aI19987
aI19988
aI19990
aI19992
aI19995
aI19997
aI19999
aI20000
aI20001
aI20002
aI20003
aI20004
aI20005
aI20007
aI20008
aI20010
aI20011
aI20012
aI20014
aI20015
aI20017
aI20018
aI20019
aI20020
aI20023
aI20025
aI20027
aI20028
aI20029
aI20031
aI20034
aI20035
aI20036
aI20038
aI20043
aI20045
aI20047
aI20050
aI20051
aI20054
aI20055
aI20056
aI20057
aI20060
aI20065
aI20070
aI20071
aI20075
aI20078
aI20082
aI20084
aI20086
aI20088
aI20089
aI20090
aI20092
aI20095
aI20100
aI20101
aI20103
aI20104
aI20106
aI20112
aI20113
aI20114
aI20115
aI20116
aI20117
aI20121
aI20124
aI20125
aI20127
aI20128
aI20130
aI20136
aI20140
aI20143
aI20146
aI20148
aI20149
aI20150
aI20152
aI20153
aI20156
aI20157
aI20159
aI20160
aI20162
aI20167
aI20171
aI20172
aI20175
aI20176
aI20177
aI20178
aI20179
aI20181
aI20182
aI20184
aI20189
aI20190
aI20191
aI20195
aI20200
aI20202
aI20203
aI20206
aI20207
aI20208
aI20210
aI20213
aI20214
aI20215
aI20216
aI20218
aI20220
aI20223
aI20225
aI20226
aI20230
aI20236
aI20239
aI20240
aI20242
aI20244
aI20246
aI20250
aI20252
aI20253
aI20259
aI20263
aI20265
aI20267
aI20272
aI20273
aI20274
aI20278
aI20280
aI20281
aI20283
aI20285
aI20287
aI20292
aI20294
aI20297
aI20300
aI20302
aI20304
aI20305
aI20311
aI20313
aI20315
aI20316
aI20320
aI20321
aI20323
aI20325
aI20327
aI20330
aI20332
aI20333
aI20336
aI20339
aI20346
aI20347
aI20350
aI20353
aI20356
aI20357
aI20360
aI20361
aI20362
aI20364
aI20367
aI20368
aI20369
aI20370
aI20375
aI20377
aI20379
aI20381
aI20382
aI20384
aI20387
aI20392
aI20400
aI20405
aI20407
aI20409
aI20410
aI20412
aI20413
aI20415
aI20417
aI20420
aI20428
aI20430
aI20431
aI20433
aI20435
aI20439
aI20440
aI20441
aI20443
aI20444
aI20445
aI20450
aI20451
aI20453
aI20454
aI20457
aI20462
aI20463
aI20466
aI20472
aI20473
aI20474
aI20478
aI20479
aI20480
aI20482
aI20483
aI20486
aI20487
aI20488
aI20489
aI20492
aI20495
aI20496
aI20499
aI20500
aI20504
aI20505
aI20508
aI20509
aI20510
aI20511
aI20513
aI20514
aI20518
aI20520
aI20522
aI20523
aI20525
aI20526
aI20533
aI20538
aI20540
aI20544
aI20550
aI20551
aI20552
aI20555
aI20557
aI20559
aI20561
aI20565
aI20567
aI20568
aI20569
aI20570
aI20572
aI20575
aI20576
aI20579
aI20580
aI20582
aI20584
aI20585
aI20592
aI20594
aI20597
aI20600
aI20601
aI20604
aI20606
aI20607
aI20608
aI20620
aI20621
aI20622
aI20625
aI20632
aI20634
aI20640
aI20641
aI20643
aI20650
aI20652
aI20654
aI20656
aI20658
aI20660
aI20661
aI20663
aI20664
aI20667
aI20671
aI20672
aI20677
aI20680
aI20686
aI20687
aI20688
aI20689
aI20691
aI20692
aI20694
aI20696
aI20700
aI20704
aI20705
aI20706
aI20708
aI20711
aI20714
aI20715
aI20719
aI20729
aI20732
aI20738
aI20742
aI20743
aI20744
aI20745
aI20746
aI20747
aI20748
aI20750
aI20752
aI20755
aI20758
aI20759
aI20760
aI20762
aI20770
aI20772
aI20775
aI20780
aI20782
aI20784
aI20785
aI20786
aI20788
aI20790
aI20791
aI20793
aI20794
aI20795
aI20796
aI20798
aI20800
aI20801
aI20803
aI20804
aI20805
aI20806
aI20807
aI20808
aI20812
aI20813
aI20819
aI20820
aI20821
aI20822
aI20823
aI20825
aI20829
aI20832
aI20834
aI20836
aI20840
aI20841
aI20844
aI20845
aI20848
aI20850
aI20852
aI20853
aI20856
aI20858
aI20863
aI20866
aI20868
aI20871
aI20878
aI20879
aI20881
aI20882
aI20883
aI20887
aI20890
aI20893
aI20897
aI20900
aI20904
aI20910
aI20911
aI20913
aI20915
aI20918
aI20920
aI20930
aI20931
aI20932
aI20933
aI20934
aI20942
aI20943
aI20945
aI20947
aI20948
aI20950
aI20956
aI20958
aI20960
aI20963
aI20964
aI20966
aI20968
aI20970
aI20975
aI20979
aI20983
aI20984
aI20988
aI20995
aI20996
aI20999
aI21000
aI21002
aI21003
aI21004
aI21005
aI21007
aI21008
aI21010
aI21012
aI21013
aI21014
aI21015
aI21016
aI21020
aI21025
aI21026
aI21030
aI21031
aI21032
aI21035
aI21038
aI21039
aI21040
aI21042
aI21044
aI21045
aI21047
aI21048
aI21050
aI21051
aI21053
aI21054
aI21055
aI21056
aI21057
aI21060
aI21062
aI21064
aI21067
aI21070
aI21073
aI21075
aI21076
aI21077
aI21078
aI21080
aI21081
aI21084
aI21085
aI21086
aI21088
aI21090
aI21092
aI21093
aI21095
aI21100
aI21104
aI21106
aI21112
aI21116
aI21118
aI21120
aI21122
aI21123
aI21124
aI21125
aI21130
aI21131
aI21132
aI21133
aI21135
aI21137
aI21142
aI21144
aI21146
aI21147
aI21149
aI21150
aI21151
aI21152
aI21153
aI21160
aI21163
aI21167
aI21170
aI21175
aI21176
aI21177
aI21180
aI21187
aI21188
aI21189
aI21192
aI21195
aI21196
aI21198
aI21200
aI21202
aI21205
aI21208
aI21211
aI21212
aI21215
aI21216
aI21220
aI21222
aI21234
aI21236
aI21237
aI21238
aI21240
aI21241
aI21243
aI21244
aI21245
aI21250
aI21252
aI21256
aI21263
aI21267
aI21269
aI21270
aI21274
aI21277
aI21280
aI21283
aI21284
aI21285
aI21287
aI21290
aI21294
aI21296
aI21297
aI21298
aI21300
aI21304
aI21306
aI21307
aI21308
aI21310
aI21315
aI21319
aI21320
aI21325
aI21326
aI21332
aI21333
aI21334
aI21337
aI21338
aI21340
aI21341
aI21346
aI21349
aI21350
aI21357
aI21358
aI21359
aI21360
aI21372
aI21373
aI21380
aI21381
aI21383
aI21384
aI21385
aI21387
aI21389
aI21396
aI21398
aI21400
aI21401
aI21402
aI21404
aI21409
aI21410
aI21414
aI21418
aI21420
aI21424
aI21425
aI21428
aI21430
aI21436
aI21441
aI21443
aI21445
aI21448
aI21450
aI21453
aI21457
aI21458
aI21462
aI21465
aI21466
aI21472
aI21476
aI21477
aI21478
aI21480
aI21481
aI21486
aI21488
aI21490
aI21492
aI21493
aI21500
aI21502
aI21504
aI21505
aI21506
aI21507
aI21510
aI21512
aI21513
aI21514
aI21515
aI21517
aI21525
aI21526
aI21529
aI21530
aI21533
aI21535
aI21536
aI21537
aI21538
aI21545
aI21549
aI21550
aI21552
aI21554
aI21556
aI21560
aI21568
aI21569
aI21572
aI21573
aI21579
aI21583
aI21591
aI21592
aI21593
aI21596
aI21597
aI21598
aI21600
aI21602
aI21604
aI21605
aI21606
aI21611
aI21612
aI21613
aI21614
aI21619
aI21625
aI21627
aI21630
aI21632
aI21634
aI21635
aI21640
aI21645
aI21648
aI21649
aI21650
aI21651
aI21656
aI21659
aI21660
aI21661
aI21662
aI21663
aI21665
aI21666
aI21667
aI21669
aI21672
aI21673
aI21674
aI21675
aI21679
aI21682
aI21684
aI21685
aI21686
aI21688
aI21689
aI21691
aI21694
aI21697
aI21698
aI21700
aI21702
aI21705
aI21706
aI21709
aI21714
aI21715
aI21718
aI21720
aI21723
aI21724
aI21727
aI21736
aI21738
aI21746
aI21747
aI21748
aI21750
aI21751
aI21754
aI21755
aI21759
aI21760
aI21763
aI21764
aI21767
aI21768
aI21770
aI21771
aI21773
aI21778
aI21780
aI21781
aI21782
aI21784
aI21789
aI21791
aI21798
aI21799
aI21800
aI21802
aI21803
aI21805
aI21806
aI21808
aI21814
aI21815
aI21817
aI21819
aI21824
aI21827
aI21835
aI21837
aI21839
aI21840
aI21841
aI21842
aI21845
aI21847
aI21848
aI21850
aI21855
aI21856
aI21859
aI21861
aI21862
aI21865
aI21866
aI21867
aI21869
aI21871
aI21872
aI21876
aI21878
aI21882
aI21883
aI21895
aI21898
aI21900
aI21903
aI21906
aI21911
aI21912
aI21914
aI21917
aI21918
aI21920
aI21922
aI21923
aI21931
aI21933
aI21936
aI21945
aI21947
aI21948
aI21949
aI21950
aI21956
aI21958
aI21959
aI21960
aI21962
aI21965
aI21966
aI21970
aI21973
aI21975
aI21980
aI21981
aI21983
aI21988
aI21995
aI22000
aI22001
aI22005
aI22007
aI22008
aI22010
aI22017
aI22018
aI22019
aI22020
aI22023
aI22025
aI22027
aI22028
aI22029
aI22030
aI22031
aI22032
aI22035
aI22040
aI22047
aI22048
aI22049
aI22050
aI22053
aI22055
aI22056
aI22058
aI22059
aI22060
aI22062
aI22064
aI22068
aI22070
aI22072
aI22073
aI22075
aI22078
aI22080
aI22082
aI22086
aI22089
aI22094
aI22095
aI22097
aI22098
aI22100
aI22103
aI22105
aI22106
aI22108
aI22109
aI22110
aI22113
aI22120
aI22123
aI22126
aI22130
aI22131
aI22135
aI22137
aI22138
aI22140
aI22143
aI22146
aI22150
aI22151
aI22152
aI22153
aI22156
aI22157
aI22162
aI22165
aI22166
aI22169
aI22177
aI22179
aI22180
aI22181
aI22185
aI22187
aI22188
aI22189
aI22190
aI22193
aI22194
aI22195
aI22199
aI22200
aI22204
aI22205
aI22206
aI22214
aI22215
aI22220
aI22222
aI22225
aI22226
aI22227
aI22229
aI22230
aI22237
aI22248
aI22250
aI22256
aI22258
aI22259
aI22260
aI22261
aI22265
aI22269
aI22271
aI22273
aI22275
aI22277
aI22280
aI22282
aI22284
aI22291
aI22295
aI22296
aI22298
aI22300
aI22303
aI22305
aI22310
aI22313
aI22317
aI22319
aI22320
aI22323
aI22328
aI22329
aI22331
aI22336
aI22339
aI22340
aI22344
aI22349
aI22350
aI22352
aI22356
aI22358
aI22359
aI22360
aI22361
aI22363
aI22366
aI22374
aI22375
aI22377
aI22380
aI22382
aI22383
aI22384
aI22388
aI22390
aI22396
aI22400
aI22405
aI22407
aI22410
aI22416
aI22425
aI22426
aI22428
aI22430
aI22432
aI22439
aI22440
aI22443
aI22445
aI22449
aI22450
aI22451
aI22455
aI22460
aI22461
aI22463
aI22464
aI22465
aI22467
aI22469
aI22474
aI22475
aI22479
aI22486
aI22488
aI22495
aI22500
aI22502
aI22505
aI22506
aI22507
aI22510
aI22512
aI22515
aI22517
aI22519
aI22520
aI22526
aI22527
aI22528
aI22530
aI22533
aI22534
aI22539
aI22540
aI22545
aI22546
aI22548
aI22549
aI22550
aI22551
aI22552
aI22553
aI22554
aI22555
aI22560
aI22564
aI22565
aI22567
aI22568
aI22570
aI22571
aI22575
aI22576
aI22578
aI22579
aI22580
aI22582
aI22583
aI22587
aI22592
aI22597
aI22600
aI22610
aI22615
aI22620
aI22627
aI22630
aI22634
aI22637
aI22641
aI22643
aI22647
aI22650
aI22653
aI22654
aI22656
aI22661
aI22664
aI22666
aI22667
aI22668
aI22670
aI22672
aI22673
aI22675
aI22677
aI22678
aI22680
aI22682
aI22685
aI22688
aI22689
aI22690
aI22693
aI22695
aI22698
aI22700
aI22707
aI22708
aI22710
aI22711
aI22714
aI22715
aI22716
aI22717
aI22720
aI22721
aI22725
aI22727
aI22731
aI22733
aI22740
aI22744
aI22750
aI22752
aI22756
aI22759
aI22762
aI22764
aI22765
aI22766
aI22769
aI22770
aI22775
aI22776
aI22780
aI22787
aI22789
aI22793
aI22800
aI22802
aI22803
aI22812
aI22813
aI22814
aI22815
aI22818
aI22819
aI22820
aI22823
aI22826
aI22830
aI22831
aI22838
aI22840
aI22845
aI22850
aI22858
aI22865
aI22866
aI22867
aI22868
aI22872
aI22875
aI22876
aI22880
aI22884
aI22886
aI22887
aI22889
aI22890
aI22894
aI22900
aI22901
aI22902
aI22903
aI22908
aI22909
aI22915
aI22916
aI22918
aI22919
aI22927
aI22930
aI22931
aI22932
aI22934
aI22936
aI22938
aI22940
aI22942
aI22945
aI22950
aI22956
aI22960
aI22966
aI22967
aI22969
aI22970
aI22972
aI22977
aI22979
aI22984
aI22985
aI22987
aI22989
aI22997
aI23000
aI23003
aI23004
aI23005
aI23006
aI23007
aI23010
aI23011
aI23012
aI23013
aI23015
aI23016
aI23018
aI23019
aI23022
aI23024
aI23025
aI23026
aI23027
aI23030
aI23032
aI23037
aI23039
aI23040
aI23041
aI23047
aI23049
aI23050
aI23052
aI23055
aI23056
aI23061
aI23064
aI23066
aI23070
aI23073
aI23074
aI23075
aI23080
aI23082
aI23087
aI23088
aI23089
aI23097
aI23098
aI23100
aI23103
aI23105
aI23112
aI23115
aI23117
aI23118
aI23120
aI23125
aI23129
aI23130
aI23132
aI23133
aI23137
aI23139
aI23150
aI23151
aI23153
aI23154
aI23155
aI23156
aI23157
aI23160
aI23162
aI23164
aI23166
aI23169
aI23170
aI23172
aI23174
aI23175
aI23180
aI23187
aI23194
aI23195
aI23197
aI23198
aI23200
aI23201
aI23204
aI23205
aI23208
aI23210
aI23211
aI23212
aI23216
aI23217
aI23219
aI23221
aI23230
aI23232
aI23233
aI23234
aI23238
aI23239
aI23240
aI23242
aI23243
aI23244
aI23246
aI23247
aI23250
aI23251
aI23254
aI23255
aI23258
aI23259
aI23262
aI23263
aI23268
aI23269
aI23271
aI23275
aI23279
aI23283
aI23284
aI23286
aI23287
aI23290
aI23291
aI23296
aI23297
aI23300
aI23301
aI23310
aI23311
aI23316
aI23319
aI23320
aI23322
aI23325
aI23327
aI23330
aI23333
aI23335
aI23337
aI23340
aI23344
aI23346
aI23350
aI23353
aI23355
aI23359
aI23360
aI23367
aI23368
aI23370
aI23371
aI23378
aI23380
aI23381
aI23383
aI23387
aI23388
aI23391
aI23392
aI23394
aI23395
aI23396
aI23397
aI23399
aI23400
aI23404
aI23405
aI23407
aI23408
aI23413
aI23421
aI23425
aI23426
aI23428
aI23433
aI23436
aI23437
aI23440
aI23443
aI23444
aI23446
aI23448
aI23450
aI23451
aI23452
aI23457
aI23460
aI23461
aI23462
aI23465
aI23468
aI23473
aI23476
aI23477
aI23478
aI23479
aI23480
aI23481
aI23483
aI23486
aI23492
aI23495
aI23500
aI23504
aI23510
aI23511
aI23513
aI23520
aI23522
aI23525
aI23527
aI23530
aI23532
aI23534
aI23535
aI23537
aI23542
aI23545
aI23546
aI23547
aI23548
aI23550
aI23551
aI23554
aI23558
aI23560
aI23566
aI23567
aI23569
aI23572
aI23573
aI23575
aI23578
aI23580
aI23581
aI23582
aI23594
aI23600
aI23602
aI23605
aI23609
aI23610
aI23611
aI23615
aI23619
aI23625
aI23629
aI23630
aI23631
aI23634
aI23635
aI23640
aI23642
aI23644
aI23645
aI23650
aI23656
aI23658
aI23660
aI23662
aI23664
aI23668
aI23670
aI23672
aI23674
aI23675
aI23678
aI23679
aI23680
aI23685
aI23690
aI23692
aI23698
aI23700
aI23705
aI23706
aI23707
aI23709
aI23712
aI23713
aI23717
aI23718
aI23719
aI23720
aI23725
aI23727
aI23729
aI23732
aI23733
aI23737
aI23746
aI23748
aI23750
aI23751
aI23755
aI23756
aI23760
aI23765
aI23775
aI23776
aI23777
aI23780
aI23786
aI23787
aI23789
aI23791
aI23795
aI23799
aI23800
aI23801
aI23804
aI23806
aI23807
aI23809
aI23810
aI23814
aI23819
aI23820
aI23822
aI23826
aI23830
aI23834
aI23835
aI23837
aI23838
aI23840
aI23843
aI23850
aI23852
aI23856
aI23858
aI23860
aI23862
aI23863
aI23865
aI23873
aI23875
aI23878
aI23879
aI23882
aI23891
aI23893
aI23894
aI23895
aI23900
aI23902
aI23904
aI23915
aI23916
aI23920
aI23926
aI23928
aI23929
aI23930
aI23931
aI23933
aI23935
aI23936
aI23942
aI23944
aI23950
aI23951
aI23960
aI23961
aI23963
aI23967
aI23975
aI23976
aI23977
aI23979
aI23981
aI23982
aI23984
aI23986
aI23990
aI23993
aI23997
aI23998
aI23999
aI24000
aI24001
aI24003
aI24004
aI24005
aI24006
aI24007
aI24008
aI24009
aI24010
aI24011
aI24012
aI24013
aI24014
aI24015
aI24018
aI24020
aI24024
aI24025
aI24026
aI24027
aI24030
aI24034
aI24035
aI24040
aI24041
aI24045
aI24047
aI24048
aI24050
aI24052
aI24054
aI24060
aI24064
aI24065
aI24068
aI24070
aI24073
aI24074
aI24075
aI24080
aI24083
aI24086
aI24087
aI24089
aI24090
aI24092
aI24093
aI24095
aI24096
aI24097
aI24099
aI24100
aI24102
aI24104
aI24106
aI24107
aI24110
aI24111
aI24112
aI24113
aI24120
aI24125
aI24126
aI24127
aI24128
aI24130
aI24132
aI24133
aI24135
aI24136
aI24140
aI24150
aI24154
aI24157
aI24158
aI24159
aI24160
aI24162
aI24163
aI24172
aI24176
aI24177
aI24178
aI24182
aI24183
aI24185
aI24186
aI24188
aI24189
aI24191
aI24200
aI24201
aI24202
aI24203
aI24205
aI24210
aI24212
aI24214
aI24220
aI24226
aI24227
aI24236
aI24245
aI24248
aI24250
aI24257
aI24260
aI24267
aI24268
aI24270
aI24274
aI24281
aI24285
aI24294
aI24296
aI24300
aI24301
aI24304
aI24305
aI24307
aI24308
aI24309
aI24311
aI24313
aI24317
aI24320
aI24324
aI24325
aI24326
aI24330
aI24331
aI24333
aI24334
aI24336
aI24345
aI24346
aI24348
aI24352
aI24353
aI24357
aI24361
aI24364
aI24368
aI24371
aI24375
aI24383
aI24384
aI24389
aI24390
aI24393
aI24395
aI24397
aI24400
aI24404
aI24408
aI24412
aI24414
aI24417
aI24420
aI24423
aI24424
aI24427
aI24428
aI24440
aI24442
aI24447
aI24448
aI24450
aI24455
aI24456
aI24458
aI24459
aI24460
aI24464
aI24466
aI24471
aI24472
aI24473
aI24474
aI24475
aI24476
aI24479
aI24480
aI24481
aI24484
aI24488
aI24491
aI24492
aI24499
aI24500
aI24503
aI24504
aI24505
aI24507
aI24508
aI24509
aI24510
aI24511
aI24512
aI24513
aI24515
aI24517
aI24518
aI24519
aI24520
aI24524
aI24526
aI24537
aI24541
aI24545
aI24549
aI24550
aI24552
aI24557
aI24560
aI24562
aI24565
aI24566
aI24569
aI24570
aI24572
aI24575
aI24581
aI24582
aI24590
aI24591
aI24592
aI24595
aI24600
aI24603
aI24608
aI24610
aI24617
aI24618
aI24619
aI24622
aI24623
aI24624
aI24626
aI24631
aI24632
aI24633
aI24635
aI24638
aI24639
aI24643
aI24645
aI24646
aI24648
aI24650
aI24653
aI24656
aI24657
aI24658
aI24660
aI24661
aI24664
aI24665
aI24667
aI24671
aI24673
aI24674
aI24677
aI24678
aI24683
aI24691
aI24693
aI24695
aI24696
aI24700
aI24701
aI24704
aI24706
aI24708
aI24709
aI24710
aI24712
aI24717
aI24719
aI24720
aI24725
aI24728
aI24730
aI24731
aI24745
aI24746
aI24747
aI24750
aI24752
aI24758
aI24759
aI24764
aI24765
aI24766
aI24768
aI24773
aI24776
aI24777
aI24778
aI24779
aI24784
aI24787
aI24788
aI24790
aI24791
aI24792
aI24796
aI24797
aI24800
aI24801
aI24804
aI24805
aI24806
aI24808
aI24810
aI24812
aI24814
aI24820
aI24824
aI24825
aI24829
aI24832
aI24833
aI24836
aI24838
aI24840
aI24842
aI24843
aI24844
aI24845
aI24854
aI24855
aI24856
aI24860
aI24861
aI24864
aI24867
aI24874
aI24877
aI24879
aI24882
aI24888
aI24895
aI24898
aI24899
aI24900
aI24902
aI24909
aI24910
aI24911
aI24912
aI24927
aI24930
aI24938
aI24940
aI24941
aI24943
aI24945
aI24946
aI24949
aI24950
aI24951
aI24955
aI24960
aI24965
aI24968
aI24970
aI24972
aI24978
aI24979
aI24982
aI24984
aI24985
aI24988
aI24989
aI24991
aI24993
aI24997
aI25000
aI25001
aI25002
aI25003
aI25005
aI25007
aI25008
aI25009
aI25010
aI25011
aI25013
aI25015
aI25017
aI25018
aI25019
aI25020
aI25021
aI25022
aI25024
aI25025
aI25026
aI25028
aI25031
aI25034
aI25036
aI25040
aI25041
aI25042
aI25043
aI25044
aI25045
aI25047
aI25050
aI25055
aI25059
aI25060
aI25063
aI25065
aI25068
aI25070
aI25072
aI25074
aI25078
aI25080
aI25084
aI25090
aI25091
aI25092
aI25096
aI25097
aI25098
aI25100
aI25103
aI25107
aI25108
aI25110
aI25111
aI25112
aI25113
aI25114
aI25116
aI25117
aI25118
aI25120
aI25121
aI25122
aI25125
aI25126
aI25139
aI25144
aI25145
aI25150
aI25156
aI25158
aI25160
aI25162
aI25163
aI25164
aI25165
aI25168
aI25171
aI25172
aI25173
aI25176
aI25178
aI25180
aI25183
aI25193
aI25194
aI25197
aI25198
aI25200
aI25201
aI25202
aI25205
aI25208
aI25210
aI25213
aI25215
aI25220
aI25225
aI25227
aI25232
aI25233
aI25234
aI25235
aI25239
aI25240
aI25241
aI25244
aI25245
aI25249
aI25250
aI25251
aI25254
aI25256
aI25258
aI25260
aI25265
aI25271
aI25272
aI25275
aI25279
aI25280
aI25283
aI25286
aI25287
aI25288
aI25289
aI25290
aI25291
aI25296
aI25298
aI25300
aI25302
aI25303
aI25305
aI25306
aI25308
aI25312
aI25315
aI25319
aI25320
aI25321
aI25323
aI25325
aI25328
aI25331
aI25333
aI25334
aI25337
aI25339
aI25340
aI25348
aI25350
aI25359
aI25360
aI25364
aI25371
aI25373
aI25375
aI25376
aI25384
aI25385
aI25390
aI25397
aI25400
aI25402
aI25408
aI25410
aI25413
aI25416
aI25420
aI25422
aI25423
aI25427
aI25429
aI25431
aI25433
aI25438
aI25441
aI25443
aI25447
aI25454
aI25456
aI25460
aI25462
aI25465
aI25468
aI25470
aI25471
aI25473
aI25474
aI25480
aI25484
aI25485
aI25489
aI25493
aI25496
aI25497
aI25500
aI25501
aI25513
aI25516
aI25520
aI25525
aI25528
aI25530
aI25533
aI25534
aI25537
aI25539
aI25548
aI25550
aI25555
aI25558
aI25560
aI25562
aI25565
aI25570
aI25571
aI25575
aI25578
aI25583
aI25584
aI25585
aI25589
aI25594
aI25597
aI25598
aI25600
aI25606
aI25614
aI25615
aI25620
aI25625
aI25630
aI25631
aI25633
aI25634
aI25642
aI25644
aI25646
aI25649
aI25650
aI25655
aI25657
aI25660
aI25663
aI25664
aI25667
aI25669
aI25670
aI25673
aI25674
aI25676
aI25678
aI25688
aI25691
aI25694
aI25696
aI25700
aI25704
aI25705
aI25706
aI25709
aI25711
aI25727
aI25730
aI25731
aI25736
aI25737
aI25738
aI25739
aI25740
aI25744
aI25747
aI25750
aI25751
aI25756
aI25757
aI25760
aI25769
aI25771
aI25772
aI25774
aI25779
aI25780
aI25782
aI25783
aI25787
aI25792
aI25794
aI25796
aI25800
aI25801
aI25806
aI25807
aI25811
aI25815
aI25818
aI25820
aI25825
aI25826
aI25827
aI25830
aI25832
aI25833
aI25835
aI25836
aI25839
aI25843
aI25846
aI25849
aI25850
aI25852
aI25853
aI25854
aI25857
aI25862
aI25863
aI25865
aI25867
aI25869
aI25871
aI25873
aI25875
aI25877
aI25880
aI25883
aI25884
aI25885
aI25890
aI25895
aI25899
aI25900
aI25901
aI25905
aI25906
aI25908
aI25909
aI25913
aI25917
aI25920
aI25921
aI25922
aI25928
aI25932
aI25934
aI25941
aI25943
aI25945
aI25946
aI25955
aI25968
aI25972
aI25973
aI25974
aI25975
aI25979
aI25983
aI25985
aI25986
aI25988
aI25992
aI25997
aI26000
aI26001
aI26003
aI26004
aI26005
aI26010
aI26012
aI26013
aI26014
aI26015
aI26018
aI26019
aI26020
aI26021
aI26022
aI26025
aI26026
aI26028
aI26030
aI26034
aI26035
aI26036
aI26037
aI26041
aI26043
aI26048
aI26050
aI26051
aI26061
aI26065
aI26067
aI26073
aI26074
aI26075
aI26076
aI26077
aI26079
aI26087
aI26088
aI26089
aI26090
aI26094
aI26095
aI26099
aI26100
aI26115
aI26120
aI26124
aI26128
aI26129
aI26133
aI26138
aI26142
aI26146
aI26148
aI26152
aI26160
aI26161
aI26164
aI26165
aI26172
aI26173
aI26176
aI26180
aI26181
aI26186
aI26195
aI26198
aI26200
aI26203
aI26204
aI26205
aI26208
aI26210
aI26214
aI26215
aI26216
aI26220
aI26222
aI26223
aI26224
aI26228
aI26229
aI26231
aI26233
aI26234
aI26237
aI26250
aI26252
aI26253
aI26256
aI26260
aI26262
aI26264
aI26267
aI26270
aI26272
aI26275
aI26279
aI26280
aI26288
aI26294
aI26295
aI26299
aI26300
aI26303
aI26304
aI26307
aI26312
aI26313
aI26316
aI26323
aI26325
aI26327
aI26329
aI26331
aI26333
aI26340
aI26341
aI26343
aI26348
aI26349
aI26350
aI26351
aI26354
aI26355
aI26360
aI26361
aI26362
aI26366
aI26367
aI26369
aI26373
aI26374
aI26377
aI26395
aI26400
aI26405
aI26406
aI26408
aI26409
aI26411
aI26416
aI26417
aI26418
aI26423
aI26426
aI26432
aI26436
aI26438
aI26441
aI26446
aI26450
aI26451
aI26453
aI26455
aI26458
aI26460
aI26462
aI26463
aI26465
aI26475
aI26479
aI26485
aI26486
aI26488
aI26489
aI26494
aI26499
aI26500
aI26502
aI26505
aI26509
aI26510
aI26511
aI26514
aI26515
aI26520
aI26525
aI26528
aI26529
aI26530
aI26531
aI26541
aI26546
aI26549
aI26550
aI26553
aI26556
aI26557
aI26559
aI26560
aI26568
aI26570
aI26575
aI26580
aI26582
aI26587
aI26588
aI26590
aI26594
aI26595
aI26600
aI26601
aI26604
aI26605
aI26612
aI26613
aI26615
aI26619
aI26620
aI26624
aI26625
aI26630
aI26639
aI26640
aI26644
aI26645
aI26648
aI26650
aI26656
aI26658
aI26659
aI26660
aI26663
aI26666
aI26667
aI26669
aI26670
aI26675
aI26680
aI26682
aI26683
aI26687
aI26689
aI26693
aI26694
aI26695
aI26697
aI26699
aI26700
aI26703
aI26705
aI26708
aI26710
aI26711
aI26713
aI26717
aI26718
aI26721
aI26725
aI26728
aI26730
aI26731
aI26736
aI26742
aI26745
aI26748
aI26749
aI26750
aI26751
aI26757
aI26770
aI26780
aI26782
aI26783
aI26784
aI26786
aI26794
aI26800
aI26804
aI26805
aI26806
aI26808
aI26809
aI26810
aI26811
aI26817
aI26822
aI26824
aI26829
aI26830
aI26832
aI26838
aI26840
aI26844
aI26851
aI26854
aI26855
aI26857
aI26859
aI26865
aI26867
aI26874
aI26878
aI26880
aI26882
aI26883
aI26884
aI26895
aI26896
aI26897
aI26898
aI26900
aI26902
aI26906
aI26907
aI26908
aI26910
aI26915
aI26917
aI26919
aI26920
aI26923
aI26927
aI26928
aI26934
aI26936
aI26942
aI26943
aI26944
aI26945
aI26948
aI26949
aI26950
aI26953
aI26955
aI26957
aI26958
aI26960
aI26962
aI26964
aI26966
aI26968
aI26975
aI26976
aI26980
aI26981
aI26985
aI26987
aI26991
aI26994
aI26995
aI26996
aI27000
aI27001
aI27002
aI27006
aI27008
aI27010
aI27011
aI27020
aI27022
aI27025
aI27028
aI27030
aI27035
aI27039
aI27040
aI27042
aI27044
aI27045
aI27050
aI27051
aI27052
aI27053
aI27054
aI27059
aI27060
aI27065
aI27066
aI27068
aI27071
aI27080
aI27081
aI27083
aI27086
aI27088
aI27090
aI27091
aI27097
aI27100
aI27102
aI27103
aI27107
aI27111
aI27113
aI27114
aI27120
aI27121
aI27122
aI27123
aI27125
aI27129
aI27133
aI27136
aI27137
aI27138
aI27144
aI27149
aI27150
aI27151
aI27156
aI27159
aI27174
aI27175
aI27179
aI27186
aI27187
aI27188
aI27191
aI27192
aI27197
aI27199
aI27200
aI27205
aI27208
aI27211
aI27212
aI27219
aI27227
aI27229
aI27234
aI27243
aI27250
aI27253
aI27254
aI27255
aI27256
aI27263
aI27268
aI27276
aI27278
aI27280
aI27283
aI27284
aI27285
aI27290
aI27294
aI27295
aI27300
aI27302
aI27305
aI27307
aI27309
aI27310
aI27311
aI27320
aI27325
aI27331
aI27332
aI27333
aI27336
aI27337
aI27340
aI27342
aI27343
aI27344
aI27346
aI27348
aI27350
aI27355
aI27358
aI27361
aI27363
aI27364
aI27370
aI27379
aI27380
aI27386
aI27388
aI27390
aI27394
aI27395
aI27397
aI27400
aI27402
aI27403
aI27406
aI27408
aI27410
aI27412
aI27413
aI27414
aI27424
aI27425
aI27429
aI27432
aI27434
aI27435
aI27438
aI27440
aI27441
aI27442
aI27444
aI27449
aI27450
aI27456
aI27458
aI27461
aI27464
aI27465
aI27468
aI27473
aI27477
aI27478
aI27480
aI27490
aI27491
aI27492
aI27494
aI27495
aI27497
aI27498
aI27500
aI27503
aI27508
aI27510
aI27511
aI27512
aI27513
aI27514
aI27515
aI27516
aI27518
aI27521
aI27525
aI27526
aI27529
aI27530
aI27531
aI27540
aI27541
aI27544
aI27545
aI27546
aI27550
aI27553
aI27555
aI27557
aI27559
aI27560
aI27562
aI27563
aI27566
aI27569
aI27571
aI27572
aI27573
aI27576
aI27583
aI27585
aI27593
aI27596
aI27597
aI27600
aI27602
aI27603
aI27604
aI27608
aI27609
aI27610
aI27613
aI27617
aI27620
aI27622
aI27624
aI27625
aI27626
aI27628
aI27629
aI27630
aI27631
aI27636
aI27640
aI27643
aI27644
aI27647
aI27648
aI27650
aI27651
aI27654
aI27655
aI27658
aI27659
aI27660
aI27662
aI27664
aI27668
aI27671
aI27678
aI27685
aI27690
aI27691
aI27692
aI27693
aI27695
aI27696
aI27697
aI27698
aI27700
aI27708
aI27709
aI27711
aI27712
aI27713
aI27715
aI27717
aI27718
aI27719
aI27720
aI27731
aI27732
aI27735
aI27736
aI27741
aI27744
aI27745
aI27750
aI27751
aI27755
aI27764
aI27767
aI27768
aI27769
aI27774
aI27781
aI27782
aI27783
aI27785
aI27789
aI27790
aI27792
aI27793
aI27795
aI27799
aI27800
aI27801
aI27808
aI27813
aI27820
aI27823
aI27829
aI27830
aI27844
aI27845
aI27848
aI27850
aI27851
aI27853
aI27854
aI27856
aI27861
aI27863
aI27872
aI27874
aI27875
aI27880
aI27883
aI27888
aI27890
aI27894
aI27900
aI27902
aI27903
aI27912
aI27913
aI27920
aI27921
aI27922
aI27924
aI27926
aI27931
aI27934
aI27935
aI27937
aI27939
aI27944
aI27950
aI27956
aI27960
aI27965
aI27972
aI27975
aI27976
aI27977
aI27979
aI27983
aI27988
aI27992
aI27993
aI27997
aI28000
aI28003
aI28004
aI28006
aI28007
aI28008
aI28009
aI28010
aI28011
aI28012
aI28013
aI28014
aI28015
aI28017
aI28018
aI28020
aI28022
aI28023
aI28025
aI28028
aI28030
aI28032
aI28035
aI28036
aI28037
aI28040
aI28041
aI28043
aI28047
aI28050
aI28060
aI28061
aI28065
aI28067
aI28070
aI28071
aI28072
aI28074
aI28078
aI28080
aI28084
aI28086
aI28087
aI28089
aI28091
aI28095
aI28096
aI28100
aI28101
aI28104
aI28105
aI28108
aI28109
aI28112
aI28113
aI28115
aI28118
aI28122
aI28125
aI28128
aI28129
aI28130
aI28134
aI28136
aI28139
aI28140
aI28144
aI28150
aI28151
aI28155
aI28158
aI28160
aI28163
aI28164
aI28170
aI28171
aI28173
aI28175
aI28176
aI28180
aI28190
aI28193
aI28196
aI28199
aI28200
aI28206
aI28207
aI28216
aI28217
aI28218
aI28223
aI28225
aI28229
aI28230
aI28235
aI28236
aI28237
aI28240
aI28243
aI28245
aI28247
aI28249
aI28250
aI28252
aI28253
aI28257
aI28261
aI28264
aI28266
aI28267
aI28268
aI28269
aI28270
aI28275
aI28278
aI28280
aI28285
aI28287
aI28289
aI28295
aI28298
aI28299
aI28300
aI28305
aI28306
aI28310
aI28312
aI28313
aI28320
aI28322
aI28325
aI28329
aI28330
aI28334
aI28336
aI28342
aI28345
aI28348
aI28350
aI28358
aI28360
aI28361
aI28370
aI28377
aI28379
aI28382
aI28385
aI28387
aI28392
aI28393
aI28397
aI28400
aI28403
aI28410
aI28416
aI28417
aI28423
aI28424
aI28427
aI28431
aI28435
aI28436
aI28438
aI28440
aI28443
aI28444
aI28446
aI28447
aI28448
aI28449
aI28450
aI28451
aI28454
aI28455
aI28460
aI28466
aI28469
aI28475
aI28478
aI28481
aI28487
aI28490
aI28496
aI28498
aI28499
aI28500
aI28506
aI28510
aI28512
aI28517
aI28520
aI28521
aI28524
aI28525
aI28529
aI28532
aI28534
aI28535
aI28536
aI28538
aI28540
aI28542
aI28546
aI28548
aI28549
aI28550
aI28556
aI28557
aI28560
aI28561
aI28562
aI28563
aI28564
aI28568
aI28569
aI28570
aI28573
aI28578
aI28585
aI28586
aI28587
aI28589
aI28594
aI28597
aI28599
aI28600
aI28607
aI28611
aI28625
aI28626
aI28627
aI28629
aI28630
aI28634
aI28639
aI28640
aI28647
aI28649
aI28650
aI28651
aI28652
aI28653
aI28656
aI28663
aI28665
aI28666
aI28667
aI28670
aI28674
aI28677
aI28678
aI28679
aI28683
aI28686
aI28688
aI28690
aI28691
aI28695
aI28704
aI28710
aI28714
aI28715
aI28716
aI28721
aI28727
aI28735
aI28736
aI28740
aI28749
aI28750
aI28754
aI28755
aI28756
aI28758
aI28759
aI28764
aI28767
aI28768
aI28769
aI28772
aI28775
aI28776
aI28777
aI28787
aI28789
aI28791
aI28792
aI28798
aI28800
aI28802
aI28805
aI28808
aI28811
aI28825
aI28827
aI28828
aI28829
aI28833
aI28837
aI28841
aI28842
aI28845
aI28846
aI28849
aI28850
aI28851
aI28853
aI28854
aI28858
aI28864
aI28870
aI28871
aI28872
aI28873
aI28877
aI28878
aI28880
aI28881
aI28891
aI28900
aI28902
aI28905
aI28909
aI28912
aI28916
aI28920
aI28921
aI28924
aI28927
aI28929
aI28933
aI28937
aI28939
aI28942
aI28950
aI28954
aI28956
aI28958
aI28961
aI28968
aI28970
aI28971
aI28973
aI28981
aI28983
aI28993
aI28995
aI28998
aI28999
aI29000
aI29001
aI29002
aI29005
aI29006
aI29009
aI29013
aI29014
aI29015
aI29018
aI29020
aI29024
aI29025
aI29026
aI29030
aI29032
aI29034
aI29035
aI29039
aI29040
aI29045
aI29049
aI29050
aI29058
aI29065
aI29069
aI29070
aI29073
aI29074
aI29075
aI29076
aI29077
aI29079
aI29080
aI29083
aI29084
aI29095
aI29097
aI29098
aI29099
aI29100
aI29101
aI29104
aI29107
aI29115
aI29116
aI29119
aI29120
aI29123
aI29124
aI29125
aI29129
aI29130
aI29131
aI29132
aI29133
aI29134
aI29140
aI29141
aI29147
aI29150
aI29154
aI29155
aI29157
aI29158
aI29159
aI29160
aI29161
aI29166
aI29170
aI29175
aI29176
aI29181
aI29184
aI29189
aI29193
aI29195
aI29197
aI29200
aI29205
aI29207
aI29208
aI29210
aI29211
aI29214
aI29220
aI29221
aI29222
aI29224
aI29226
aI29229
aI29230
aI29232
aI29242
aI29244
aI29245
aI29248
aI29250
aI29251
aI29253
aI29257
aI29266
aI29269
aI29276
aI29280
aI29282
aI29283
aI29287
aI29288
aI29292
aI29297
aI29300
aI29304
aI29306
aI29316
aI29320
aI29325
aI29326
aI29328
aI29333
aI29337
aI29350
aI29352
aI29358
aI29359
aI29360
aI29364
aI29370
aI29372
aI29373
aI29374
aI29382
aI29383
aI29384
aI29385
aI29394
aI29395
aI29398
aI29400
aI29401
aI29403
aI29411
aI29412
aI29414
aI29415
aI29418
aI29422
aI29423
aI29425
aI29427
aI29432
aI29435
aI29436
aI29438
aI29440
aI29445
aI29448
aI29450
aI29453
aI29470
aI29473
aI29478
aI29479
aI29480
aI29484
aI29486
aI29487
aI29496
aI29497
aI29498
aI29500
aI29501
aI29502
aI29503
aI29510
aI29514
aI29515
aI29517
aI29520
aI29526
aI29528
aI29530
aI29532
aI29534
aI29536
aI29547
aI29548
aI29549
aI29550
aI29556
aI29560
aI29574
aI29578
aI29581
aI29586
aI29589
aI29590
aI29596
aI29598
aI29600
aI29606
aI29621
aI29622
aI29625
aI29626
aI29628
aI29629
aI29630
aI29634
aI29640
aI29644
aI29645
aI29648
aI29650
aI29652
aI29653
aI29662
aI29663
aI29672
aI29675
aI29680
aI29687
aI29700
aI29706
aI29707
aI29708
aI29713
aI29714
aI29715
aI29716
aI29722
aI29724
aI29725
aI29727
aI29728
aI29734
aI29736
aI29744
aI29747
aI29748
aI29750
aI29751
aI29752
aI29754
aI29758
aI29761
aI29764
aI29765
aI29767
aI29770
aI29780
aI29782
aI29785
aI29789
aI29790
aI29795
aI29796
aI29799
aI29800
aI29804
aI29806
aI29812
aI29813
aI29814
aI29816
aI29822
aI29825
aI29833
aI29835
aI29836
aI29842
aI29844
aI29846
aI29848
aI29851
aI29856
aI29860
aI29869
aI29871
aI29875
aI29880
aI29883
aI29885
aI29889
aI29890
aI29899
aI29900
aI29908
aI29909
aI29910
aI29912
aI29913
aI29920
aI29929
aI29932
aI29937
aI29945
aI29951
aI29952
aI29967
aI29968
aI29970
aI29972
aI29973
aI29975
aI29978
aI29980
aI29982
aI29984
aI29990
aI29991
aI29993
aI29994
aI29996
aI29999
aI30000
aI30001
aI30002
aI30003
aI30004
aI30005
aI30006
aI30007
aI30009
aI30010
aI30011
aI30012
aI30013
aI30014
aI30015
aI30016
aI30017
aI30018
aI30020
aI30021
aI30022
aI30023
aI30024
aI30025
aI30026
aI30028
aI30029
aI30030
aI30031
aI30034
aI30035
aI30037
aI30038
aI30040
aI30041
aI30042
aI30043
aI30044
aI30047
aI30048
aI30050
aI30051
aI30052
aI30055
aI30056
aI30059
aI30061
aI30062
aI30064
aI30065
aI30070
aI30075
aI30076
aI30078
aI30083
aI30085
aI30088
aI30089
aI30090
aI30092
aI30096
aI30097
aI30100
aI30102
aI30104
aI30105
aI30106
aI30108
aI30109
aI30110
aI30112
aI30113
aI30115
aI30124
aI30125
aI30128
aI30130
aI30132
aI30136
aI30137
aI30140
aI30141
aI30142
aI30144
aI30150
aI30154
aI30155
aI30158
aI30160
aI30162
aI30164
aI30172
aI30175
aI30179
aI30180
aI30183
aI30185
aI30186
aI30194
aI30195
aI30198
aI30200
aI30202
aI30204
aI30210
aI30213
aI30218
aI30219
aI30221
aI30224
aI30225
aI30227
aI30229
aI30231
aI30234
aI30235
aI30238
aI30239
aI30240
aI30242
aI30245
aI30249
aI30250
aI30251
aI30259
aI30260
aI30261
aI30264
aI30265
aI30266
aI30267
aI30268
aI30273
aI30275
aI30279
aI30280
aI30283
aI30285
aI30288
aI30296
aI30299
aI30300
aI30301
aI30304
aI30305
aI30308
aI30311
aI30312
aI30315
aI30325
aI30326
aI30328
aI30330
aI30334
aI30336
aI30339
aI30341
aI30348
aI30350
aI30360
aI30365
aI30367
aI30368
aI30370
aI30372
aI30373
aI30375
aI30378
aI30381
aI30383
aI30384
aI30389
aI30393
aI30394
aI30400
aI30403
aI30410
aI30416
aI30417
aI30420
aI30424
aI30425
aI30426
aI30430
aI30437
aI30439
aI30440
aI30447
aI30450
aI30452
aI30456
aI30459
aI30465
aI30472
aI30473
aI30475
aI30486
aI30488
aI30495
aI30497
aI30500
aI30503
aI30504
aI30507
aI30512
aI30514
aI30518
aI30520
aI30524
aI30530
aI30531
aI30532
aI30538
aI30539
aI30542
aI30544
aI30547
aI30550
aI30556
aI30558
aI30559
aI30563
aI30564
aI30568
aI30575
aI30576
aI30578
aI30579
aI30580
aI30581
aI30583
aI30590
aI30592
aI30594
aI30597
aI30599
aI30600
aI30601
aI30605
aI30606
aI30609
aI30610
aI30622
aI30625
aI30626
aI30630
aI30632
aI30636
aI30637
aI30640
aI30642
aI30644
aI30645
aI30646
aI30650
aI30651
aI30656
aI30659
aI30663
aI30669
aI30674
aI30680
aI30686
aI30690
aI30691
aI30695
aI30700
aI30705
aI30711
aI30713
aI30720
aI30725
aI30733
aI30735
aI30741
aI30746
aI30750
aI30755
aI30758
aI30761
aI30763
aI30764
aI30765
aI30766
aI30770
aI30773
aI30775
aI30780
aI30782
aI30783
aI30785
aI30787
aI30789
aI30791
aI30792
aI30794
aI30797
aI30800
aI30809
aI30811
aI30814
aI30815
aI30816
aI30824
aI30825
aI30826
aI30827
aI30831
aI30832
aI30833
aI30836
aI30838
aI30840
aI30847
aI30850
aI30862
aI30866
aI30867
aI30869
aI30870
aI30873
aI30878
aI30883
aI30884
aI30885
aI30887
aI30900
aI30902
aI30908
aI30909
aI30910
aI30914
aI30916
aI30925
aI30927
aI30929
aI30935
aI30938
aI30944
aI30950
aI30954
aI30955
aI30957
aI30966
aI30967
aI30972
aI30975
aI30976
aI30979
aI30980
aI30983
aI30988
aI30992
aI30993
aI30996
aI31000
aI31004
aI31005
aI31006
aI31007
aI31010
aI31012
aI31013
aI31015
aI31022
aI31025
aI31030
aI31031
aI31032
aI31033
aI31035
aI31043
aI31046
aI31048
aI31050
aI31056
aI31059
aI31060
aI31062
aI31063
aI31064
aI31068
aI31069
aI31071
aI31072
aI31074
aI31080
aI31082
aI31083
aI31085
aI31087
aI31091
aI31100
aI31103
aI31104
aI31111
aI31117
aI31118
aI31119
aI31120
aI31121
aI31123
aI31124
aI31130
aI31136
aI31143
aI31145
aI31149
aI31150
aI31158
aI31160
aI31164
aI31165
aI31170
aI31173
aI31175
aI31187
aI31188
aI31189
aI31192
aI31195
aI31200
aI31202
aI31203
aI31207
aI31208
aI31210
aI31212
aI31215
aI31216
aI31217
aI31220
aI31221
aI31230
aI31231
aI31234
aI31242
aI31249
aI31250
aI31252
aI31257
aI31262
aI31270
aI31274
aI31278
aI31280
aI31281
aI31282
aI31288
aI31296
aI31300
aI31302
aI31303
aI31304
aI31308
aI31312
aI31313
aI31314
aI31318
aI31328
aI31329
aI31330
aI31333
aI31343
aI31345
aI31350
aI31352
aI31353
aI31355
aI31356
aI31363
aI31365
aI31375
aI31376
aI31378
aI31384
aI31389
aI31390
aI31399
aI31403
aI31410
aI31412
aI31422
aI31424
aI31425
aI31429
aI31432
aI31433
aI31436
aI31440
aI31442
aI31450
aI31455
aI31456
aI31458
aI31460
aI31462
aI31466
aI31467
aI31475
aI31478
aI31481
aI31484
aI31486
aI31488
aI31490
aI31493
aI31496
aI31497
aI31500
aI31503
aI31510
aI31511
aI31514
aI31515
aI31516
aI31517
aI31525
aI31528
aI31539
aI31548
aI31550
aI31562
aI31564
aI31565
aI31568
aI31574
aI31579
aI31580
aI31582
aI31590
aI31591
aI31595
aI31598
aI31599
aI31600
aI31601
aI31603
aI31604
aI31605
aI31607
aI31609
aI31611
aI31615
aI31616
aI31619
aI31625
aI31627
aI31630
aI31635
aI31639
aI31643
aI31644
aI31647
aI31650
aI31659
aI31660
aI31663
aI31668
aI31670
aI31671
aI31680
aI31685
aI31688
aI31689
aI31691
aI31696
aI31697
aI31699
aI31700
aI31702
aI31703
aI31705
aI31708
aI31711
aI31712
aI31714
aI31716
aI31725
aI31727
aI31737
aI31739
aI31744
aI31749
aI31750
aI31755
aI31761
aI31763
aI31764
aI31765
aI31767
aI31775
aI31782
aI31783
aI31784
aI31787
aI31791
aI31792
aI31793
aI31796
aI31799
aI31800
aI31802
aI31804
aI31815
aI31817
aI31820
aI31821
aI31823
aI31824
aI31826
aI31829
aI31836
aI31839
aI31840
aI31847
aI31850
aI31851
aI31858
aI31862
aI31863
aI31872
aI31882
aI31887
aI31888
aI31893
aI31900
aI31903
aI31904
aI31906
aI31907
aI31909
aI31913
aI31915
aI31917
aI31919
aI31924
aI31925
aI31926
aI31928
aI31930
aI31931
aI31935
aI31940
aI31941
aI31944
aI31947
aI31960
aI31961
aI31963
aI31967
aI31970
aI31975
aI31978
aI31985
aI31988
aI31990
aI31995
aI31997
aI31998
aI32000
aI32002
aI32003
aI32004
aI32005
aI32006
aI32007
aI32008
aI32010
aI32012
aI32013
aI32016
aI32017
aI32018
aI32021
aI32022
aI32023
aI32024
aI32025
aI32030
aI32032
aI32035
aI32036
aI32038
aI32040
aI32042
aI32043
aI32044
aI32047
aI32050
aI32053
aI32060
aI32061
aI32065
aI32067
aI32073
aI32074
aI32075
aI32076
aI32084
aI32086
aI32087
aI32089
aI32093
aI32095
aI32097
aI32100
aI32101
aI32102
aI32104
aI32105
aI32110
aI32115
aI32116
aI32118
aI32120
aI32130
aI32134
aI32135
aI32142
aI32144
aI32146
aI32148
aI32149
aI32150
aI32156
aI32159
aI32161
aI32165
aI32169
aI32179
aI32186
aI32188
aI32195
aI32198
aI32200
aI32203
aI32208
aI32216
aI32230
aI32231
aI32240
aI32241
aI32242
aI32245
aI32250
aI32251
aI32258
aI32260
aI32261
aI32271
aI32275
aI32276
aI32278
aI32279
aI32280
aI32281
aI32282
aI32284
aI32285
aI32299
aI32300
aI32301
aI32302
aI32303
aI32304
aI32308
aI32322
aI32323
aI32326
aI32327
aI32328
aI32330
aI32332
aI32333
aI32336
aI32337
aI32347
aI32348
aI32350
aI32358
aI32360
aI32363
aI32365
aI32366
aI32367
aI32369
aI32377
aI32380
aI32384
aI32388
aI32390
aI32392
aI32396
aI32400
aI32401
aI32404
aI32414
aI32419
aI32420
aI32425
aI32427
aI32428
aI32430
aI32432
aI32442
aI32448
aI32450
aI32452
aI32454
aI32461
aI32463
aI32464
aI32470
aI32472
aI32473
aI32475
aI32476
aI32478
aI32480
aI32485
aI32487
aI32499
aI32500
aI32503
aI32504
aI32505
aI32506
aI32507
aI32509
aI32510
aI32511
aI32514
aI32515
aI32518
aI32522
aI32525
aI32532
aI32535
aI32540
aI32542
aI32544
aI32548
aI32550
aI32552
aI32553
aI32558
aI32559
aI32560
aI32561
aI32562
aI32565
aI32568
aI32569
aI32570
aI32572
aI32575
aI32577
aI32580
aI32583
aI32585
aI32586
aI32588
aI32595
aI32600
aI32603
aI32604
aI32608
aI32615
aI32616
aI32618
aI32625
aI32630
aI32631
aI32634
aI32635
aI32638
aI32640
aI32641
aI32643
aI32645
aI32648
aI32650
aI32651
aI32660
aI32661
aI32669
aI32672
aI32676
aI32677
aI32686
aI32689
aI32690
aI32693
aI32695
aI32697
aI32698
aI32700
aI32703
aI32708
aI32709
aI32710
aI32711
aI32713
aI32715
aI32718
aI32722
aI32725
aI32728
aI32730
aI32732
aI32735
aI32738
aI32740
aI32745
aI32750
aI32757
aI32760
aI32761
aI32762
aI32763
aI32764
aI32765
aI32770
aI32772
aI32781
aI32786
aI32787
aI32789
aI32790
aI32792
aI32800
aI32801
aI32802
aI32803
aI32807
aI32810
aI32813
aI32815
aI32816
aI32818
aI32823
aI32825
aI32829
aI32830
aI32831
aI32835
aI32838
aI32840
aI32843
aI32848
aI32849
aI32855
aI32859
aI32869
aI32874
aI32876
aI32878
aI32886
aI32887
aI32889
aI32892
aI32897
aI32900
aI32906
aI32909
aI32910
aI32913
aI32918
aI32921
aI32924
aI32950
aI32951
aI32953
aI32954
aI32955
aI32958
aI32963
aI32970
aI32971
aI32974
aI32977
aI32980
aI32981
aI32989
aI32994
aI32996
aI32997
aI32999
aI33000
aI33001
aI33003
aI33005
aI33007
aI33008
aI33010
aI33013
aI33014
aI33015
aI33016
aI33018
aI33019
aI33020
aI33022
aI33025
aI33030
aI33031
aI33036
aI33038
aI33045
aI33050
aI33051
aI33054
aI33056
aI33060
aI33066
aI33069
aI33072
aI33073
aI33074
aI33075
aI33077
aI33080
aI33081
aI33084
aI33089
aI33091
aI33092
aI33093
aI33094
aI33096
aI33097
aI33098
aI33100
aI33105
aI33108
aI33111
aI33112
aI33114
aI33115
aI33118
aI33120
aI33127
aI33134
aI33136
aI33140
aI33141
aI33147
aI33150
aI33153
aI33156
aI33160
aI33166
aI33167
aI33170
aI33171
aI33174
aI33176
aI33182
aI33183
aI33184
aI33186
aI33187
aI33188
aI33200
aI33201
aI33205
aI33206
aI33208
aI33209
aI33213
aI33214
aI33215
aI33220
aI33222
aI33223
aI33227
aI33230
aI33231
aI33236
aI33241
aI33248
aI33250
aI33253
aI33255
aI33261
aI33264
aI33266
aI33272
aI33275
aI33280
aI33283
aI33286
aI33289
aI33290
aI33293
aI33294
aI33298
aI33300
aI33304
aI33305
aI33306
aI33307
aI33315
aI33317
aI33320
aI33321
aI33322
aI33325
aI33328
aI33329
aI33330
aI33332
aI33333
aI33337
aI33339
aI33340
aI33342
aI33346
aI33350
aI33352
aI33356
aI33358
aI33361
aI33363
aI33364
aI33365
aI33366
aI33369
aI33370
aI33371
aI33377
aI33380
aI33384
aI33385
aI33394
aI33396
aI33398
aI33399
aI33400
aI33401
aI33402
aI33407
aI33410
aI33413
aI33418
aI33426
aI33428
aI33429
aI33431
aI33435
aI33436
aI33437
aI33440
aI33441
aI33443
aI33444
aI33450
aI33468
aI33470
aI33474
aI33477
aI33481
aI33482
aI33488
aI33491
aI33494
aI33496
aI33497
aI33500
aI33501
aI33506
aI33507
aI33509
aI33510
aI33511
aI33514
aI33524
aI33525
aI33526
aI33528
aI33533
aI33534
aI33535
aI33537
aI33539
aI33550
aI33552
aI33557
aI33560
aI33561
aI33576
aI33577
aI33581
aI33583
aI33585
aI33588
aI33590
aI33592
aI33600
aI33601
aI33605
aI33606
aI33608
aI33610
aI33617
aI33623
aI33625
aI33626
aI33629
aI33634
aI33636
aI33638
aI33639
aI33643
aI33652
aI33659
aI33664
aI33667
aI33670
aI33675
aI33683
aI33694
aI33696
aI33700
aI33702
aI33703
aI33710
aI33712
aI33715
aI33718
aI33719
aI33724
aI33726
aI33749
aI33750
aI33753
aI33755
aI33757
aI33761
aI33766
aI33775
aI33778
aI33781
aI33783
aI33786
aI33787
aI33790
aI33791
aI33797
aI33798
aI33800
aI33803
aI33804
aI33806
aI33815
aI33816
aI33820
aI33825
aI33830
aI33833
aI33843
aI33850
aI33852
aI33853
aI33858
aI33862
aI33866
aI33869
aI33871
aI33875
aI33878
aI33882
aI33885
aI33887
aI33890
aI33892
aI33895
aI33899
aI33900
aI33904
aI33905
aI33907
aI33925
aI33927
aI33930
aI33940
aI33945
aI33946
aI33949
aI33950
aI33956
aI33961
aI33972
aI33977
aI33979
aI33981
aI33986
aI33987
aI33991
aI33996
aI34000
aI34002
aI34003
aI34006
aI34007
aI34008
aI34010
aI34012
aI34013
aI34015
aI34017
aI34020
aI34025
aI34026
aI34028
aI34029
aI34030
aI34032
aI34035
aI34036
aI34043
aI34045
aI34046
aI34050
aI34052
aI34060
aI34062
aI34066
aI34070
aI34072
aI34075
aI34079
aI34080
aI34085
aI34088
aI34090
aI34095
aI34096
aI34097
aI34098
aI34099
aI34100
aI34101
aI34102
aI34103
aI34104
aI34105
aI34110
aI34111
aI34113
aI34116
aI34120
aI34123
aI34125
aI34130
aI34132
aI34137
aI34138
aI34143
aI34146
aI34148
aI34150
aI34155
aI34156
aI34160
aI34163
aI34164
aI34165
aI34168
aI34171
aI34172
aI34175
aI34190
aI34192
aI34195
aI34199
aI34200
aI34210
aI34219
aI34221
aI34226
aI34230
aI34234
aI34240
aI34243
aI34245
aI34250
aI34257
aI34261
aI34267
aI34272
aI34273
aI34274
aI34279
aI34280
aI34283
aI34286
aI34289
aI34294
aI34300
aI34306
aI34308
aI34310
aI34311
aI34315
aI34320
aI34325
aI34326
aI34328
aI34330
aI34332
aI34333
aI34334
aI34335
aI34336
aI34341
aI34343
aI34344
aI34345
aI34346
aI34349
aI34352
aI34359
aI34361
aI34364
aI34369
aI34370
aI34374
aI34376
aI34380
aI34381
aI34388
aI34390
aI34394
aI34398
aI34400
aI34405
aI34407
aI34408
aI34410
aI34416
aI34419
aI34424
aI34426
aI34431
aI34432
aI34441
aI34444
aI34445
aI34450
aI34469
aI34475
aI34478
aI34479
aI34480
aI34482
aI34483
aI34488
aI34498
aI34500
aI34503
aI34506
aI34507
aI34510
aI34512
aI34516
aI34518
aI34524
aI34525
aI34528
aI34533
aI34537
aI34538
aI34546
aI34550
aI34560
aI34561
aI34562
aI34564
aI34570
aI34575
aI34581
aI34587
aI34588
aI34590
aI34594
aI34595
aI34600
aI34608
aI34610
aI34611
aI34618
aI34622
aI34624
aI34625
aI34628
aI34633
aI34645
aI34646
aI34648
aI34649
aI34650
aI34651
aI34655
aI34658
aI34670
aI34674
aI34678
aI34683
aI34686
aI34695
aI34700
aI34707
aI34709
aI34712
aI34713
aI34714
aI34718
aI34721
aI34724
aI34725
aI34727
aI34728
aI34731
aI34732
aI34742
aI34745
aI34746
aI34750
aI34752
aI34753
aI34757
aI34759
aI34760
aI34765
aI34768
aI34770
aI34773
aI34775
aI34778
aI34783
aI34800
aI34802
aI34811
aI34813
aI34815
aI34816
aI34819
aI34820
aI34822
aI34827
aI34828
aI34831
aI34833
aI34840
aI34841
aI34845
aI34847
aI34850
aI34853
aI34858
aI34869
aI34873
aI34874
aI34875
aI34882
aI34887
aI34891
aI34892
aI34900
aI34901
aI34907
aI34909
aI34910
aI34911
aI34913
aI34921
aI34922
aI34938
aI34944
aI34946
aI34948
aI34957
aI34959
aI34960
aI34964
aI34965
aI34970
aI34977
aI34978
aI34982
aI34983
aI34986
aI34992
aI34995
aI34996
aI34998
aI34999
aI35000
aI35005
aI35006
aI35007
aI35008
aI35009
aI35010
aI35011
aI35012
aI35013
aI35014
aI35015
aI35016
aI35017
aI35020
aI35023
aI35024
aI35025
aI35027
aI35028
aI35030
aI35034
aI35035
aI35039
aI35040
aI35042
aI35043
aI35046
aI35050
aI35055
aI35060
aI35062
aI35063
aI35066
aI35069
aI35070
aI35082
aI35084
aI35085
aI35087
aI35092
aI35097
aI35100
aI35104
aI35106
aI35107
aI35110
aI35112
aI35116
aI35117
aI35120
aI35123
aI35124
aI35125
aI35126
aI35129
aI35130
aI35132
aI35142
aI35144
aI35145
aI35147
aI35150
aI35151
aI35152
aI35154
aI35156
aI35157
aI35160
aI35163
aI35167
aI35170
aI35174
aI35179
aI35180
aI35186
aI35187
aI35196
aI35200
aI35203
aI35204
aI35212
aI35213
aI35214
aI35218
aI35220
aI35223
aI35224
aI35227
aI35232
aI35235
aI35236
aI35243
aI35250
aI35253
aI35256
aI35258
aI35260
aI35266
aI35277
aI35280
aI35293
aI35294
aI35298
aI35300
aI35305
aI35308
aI35309
aI35320
aI35322
aI35325
aI35330
aI35333
aI35334
aI35335
aI35338
aI35339
aI35341
aI35342
aI35348
aI35349
aI35350
aI35360
aI35362
aI35367
aI35370
aI35371
aI35372
aI35375
aI35380
aI35381
aI35383
aI35385
aI35387
aI35388
aI35391
aI35394
aI35399
aI35400
aI35402
aI35405
aI35410
aI35415
aI35422
aI35423
aI35428
aI35430
aI35431
aI35433
aI35434
aI35435
aI35440
aI35441
aI35442
aI35443
aI35446
aI35452
aI35455
aI35462
aI35469
aI35470
aI35474
aI35480
aI35482
aI35494
aI35500
aI35503
aI35518
aI35530
aI35532
aI35536
aI35537
aI35541
aI35544
aI35550
aI35552
aI35558
aI35560
aI35561
aI35563
aI35565
aI35568
aI35573
aI35574
aI35575
aI35578
aI35579
aI35587
aI35596
aI35600
aI35605
aI35607
aI35612
aI35616
aI35621
aI35625
aI35630
aI35634
aI35646
aI35651
aI35656
aI35657
aI35664
aI35670
aI35671
aI35672
aI35675
aI35676
aI35681
aI35686
aI35690
aI35694
aI35700
aI35706
aI35727
aI35729
aI35732
aI35735
aI35739
aI35740
aI35745
aI35746
aI35749
aI35750
aI35756
aI35757
aI35760
aI35767
aI35768
aI35775
aI35776
aI35780
aI35786
aI35792
aI35797
aI35798
aI35800
aI35801
aI35802
aI35804
aI35806
aI35810
aI35816
aI35819
aI35821
aI35824
aI35825
aI35830
aI35831
aI35832
aI35835
aI35839
aI35842
aI35850
aI35852
aI35856
aI35860
aI35865
aI35869
aI35873
aI35879
aI35880
aI35881
aI35896
aI35900
aI35901
aI35906
aI35908
aI35913
aI35922
aI35923
aI35926
aI35930
aI35936
aI35939
aI35944
aI35945
aI35949
aI35951
aI35955
aI35960
aI35964
aI35966
aI35969
aI35970
aI35976
aI35980
aI35985
aI35986
aI35990
aI35992
aI35993
aI35999
aI36000
aI36002
aI36004
aI36005
aI36006
aI36007
aI36008
aI36010
aI36012
aI36013
aI36014
aI36015
aI36020
aI36021
aI36023
aI36024
aI36025
aI36026
aI36027
aI36028
aI36031
aI36036
aI36038
aI36039
aI36040
aI36042
aI36044
aI36045
aI36046
aI36050
aI36060
aI36067
aI36068
aI36070
aI36071
aI36073
aI36075
aI36076
aI36078
aI36080
aI36085
aI36086
aI36088
aI36091
aI36096
aI36098
aI36100
aI36102
aI36103
aI36105
aI36106
aI36110
aI36112
aI36117
aI36119
aI36124
aI36125
aI36126
aI36136
aI36138
aI36141
aI36142
aI36143
aI36147
aI36149
aI36150
aI36156
aI36157
aI36161
aI36163
aI36172
aI36173
aI36175
aI36176
aI36180
aI36183
aI36188
aI36192
aI36197
aI36200
aI36203
aI36205
aI36206
aI36212
aI36216
aI36217
aI36222
aI36223
aI36227
aI36233
aI36242
aI36243
aI36244
aI36250
aI36254
aI36270
aI36289
aI36297
aI36299
aI36300
aI36304
aI36310
aI36315
aI36320
aI36322
aI36330
aI36332
aI36340
aI36342
aI36343
aI36350
aI36351
aI36354
aI36363
aI36366
aI36369
aI36375
aI36377
aI36381
aI36391
aI36392
aI36393
aI36398
aI36400
aI36408
aI36410
aI36413
aI36415
aI36433
aI36442
aI36445
aI36450
aI36451
aI36452
aI36454
aI36457
aI36460
aI36478
aI36487
aI36488
aI36489
aI36490
aI36491
aI36493
aI36500
aI36504
aI36506
aI36508
aI36515
aI36516
aI36527
aI36532
aI36535
aI36536
aI36544
aI36546
aI36550
aI36558
aI36563
aI36566
aI36567
aI36571
aI36575
aI36578
aI36582
aI36586
aI36589
aI36594
aI36598
aI36600
aI36603
aI36604
aI36608
aI36610
aI36615
aI36621
aI36623
aI36635
aI36637
aI36640
aI36642
aI36645
aI36647
aI36650
aI36654
aI36660
aI36667
aI36678
aI36682
aI36686
aI36691
aI36698
aI36700
aI36708
aI36710
aI36712
aI36717
aI36719
aI36720
aI36726
aI36727
aI36729
aI36735
aI36750
aI36752
aI36758
aI36761
aI36763
aI36768
aI36769
aI36770
aI36775
aI36776
aI36778
aI36780
aI36788
aI36789
aI36791
aI36792
aI36794
aI36796
aI36800
aI36802
aI36805
aI36806
aI36810
aI36813
aI36816
aI36818
aI36819
aI36820
aI36824
aI36826
aI36829
aI36845
aI36850
aI36852
aI36858
aI36860
aI36861
aI36872
aI36875
aI36877
aI36878
aI36885
aI36890
aI36891
aI36892
aI36900
aI36908
aI36913
aI36914
aI36916
aI36920
aI36925
aI36927
aI36930
aI36932
aI36950
aI36960
aI36966
aI36968
aI36975
aI36977
aI36980
aI36981
aI36983
aI36984
aI36986
aI37000
aI37003
aI37007
aI37009
aI37010
aI37013
aI37014
aI37018
aI37023
aI37024
aI37031
aI37038
aI37039
aI37040
aI37045
aI37046
aI37048
aI37050
aI37056
aI37061
aI37062
aI37064
aI37068
aI37073
aI37074
aI37075
aI37076
aI37081
aI37086
aI37087
aI37094
aI37098
aI37100
aI37106
aI37107
aI37117
aI37120
aI37125
aI37128
aI37138
aI37139
aI37148
aI37150
aI37151
aI37152
aI37154
aI37167
aI37171
aI37172
aI37175
aI37180
aI37182
aI37183
aI37185
aI37190
aI37192
aI37193
aI37198
aI37200
aI37205
aI37206
aI37210
aI37218
aI37220
aI37230
aI37232
aI37236
aI37237
aI37238
aI37239
aI37240
aI37243
aI37250
aI37254
aI37256
aI37259
aI37269
aI37273
aI37276
aI37277
aI37279
aI37285
aI37288
aI37291
aI37293
aI37299
aI37300
aI37301
aI37304
aI37305
aI37308
aI37310
aI37327
aI37332
aI37336
aI37340
aI37342
aI37349
aI37350
aI37357
aI37359
aI37361
aI37365
aI37366
aI37370
aI37375
aI37377
aI37378
aI37386
aI37390
aI37395
aI37396
aI37398
aI37400
aI37405
aI37410
aI37411
aI37412
aI37421
aI37427
aI37434
aI37440
aI37441
aI37442
aI37443
aI37446
aI37448
aI37450
aI37452
aI37460
aI37463
aI37468
aI37470
aI37476
aI37479
aI37480
aI37481
aI37485
aI37490
aI37494
aI37495
aI37497
aI37500
aI37502
aI37504
aI37506
aI37507
aI37508
aI37509
aI37510
aI37512
aI37513
aI37514
aI37518
aI37520
aI37525
aI37530
aI37532
aI37533
aI37538
aI37540
aI37542
aI37550
aI37551
aI37553
aI37558
aI37560
aI37576
aI37583
aI37590
aI37596
aI37600
aI37603
aI37605
aI37622
aI37623
aI37625
aI37626
aI37627
aI37630
aI37636
aI37638
aI37640
aI37644
aI37645
aI37647
aI37648
aI37650
aI37654
aI37656
aI37658
aI37659
aI37671
aI37674
aI37676
aI37680
aI37681
aI37688
aI37690
aI37692
aI37695
aI37699
aI37700
aI37703
aI37706
aI37707
aI37710
aI37713
aI37721
aI37723
aI37725
aI37730
aI37735
aI37747
aI37750
aI37752
aI37756
aI37759
aI37760
aI37761
aI37769
aI37771
aI37773
aI37775
aI37778
aI37782
aI37785
aI37799
aI37800
aI37801
aI37803
aI37805
aI37807
aI37808
aI37809
aI37814
aI37816
aI37821
aI37825
aI37827
aI37830
aI37833
aI37835
aI37841
aI37849
aI37850
aI37856
aI37858
aI37859
aI37862
aI37866
aI37868
aI37869
aI37875
aI37876
aI37877
aI37886
aI37888
aI37893
aI37900
aI37908
aI37913
aI37917
aI37918
aI37925
aI37930
aI37931
aI37934
aI37936
aI37940
aI37944
aI37950
aI37951
aI37956
aI37959
aI37969
aI37970
aI37981
aI37986
aI37988
aI37997
aI38000
aI38001
aI38002
aI38004
aI38005
aI38008
aI38009
aI38010
aI38011
aI38012
aI38014
aI38015
aI38017
aI38018
aI38019
aI38022
aI38025
aI38029
aI38030
aI38035
aI38038
aI38040
aI38044
aI38050
aI38053
aI38055
aI38056
aI38059
aI38060
aI38063
aI38064
aI38067
aI38070
aI38071
aI38075
aI38080
aI38081
aI38083
aI38085
aI38086
aI38090
aI38091
aI38099
aI38100
aI38108
aI38110
aI38111
aI38120
aI38123
aI38125
aI38129
aI38135
aI38145
aI38147
aI38149
aI38150
aI38154
aI38157
aI38160
aI38162
aI38163
aI38165
aI38166
aI38171
aI38175
aI38189
aI38193
aI38194
aI38197
aI38198
aI38200
aI38202
aI38204
aI38205
aI38208
aI38218
aI38219
aI38220
aI38223
aI38224
aI38237
aI38240
aI38246
aI38250
aI38251
aI38255
aI38259
aI38262
aI38263
aI38266
aI38269
aI38270
aI38274
aI38278
aI38280
aI38282
aI38288
aI38293
aI38297
aI38300
aI38301
aI38302
aI38306
aI38307
aI38315
aI38320
aI38324
aI38325
aI38326
aI38327
aI38334
aI38337
aI38349
aI38350
aI38357
aI38360
aI38366
aI38367
aI38369
aI38375
aI38381
aI38383
aI38384
aI38392
aI38398
aI38399
aI38400
aI38402
aI38403
aI38410
aI38411
aI38413
aI38415
aI38418
aI38419
aI38427
aI38436
aI38437
aI38438
aI38439
aI38440
aI38442
aI38445
aI38446
aI38452
aI38455
aI38457
aI38462
aI38470
aI38473
aI38480
aI38495
aI38496
aI38498
aI38500
aI38504
aI38505
aI38507
aI38510
aI38514
aI38515
aI38521
aI38523
aI38524
aI38525
aI38526
aI38531
aI38532
aI38535
aI38536
aI38537
aI38540
aI38547
aI38549
aI38550
aI38551
aI38560
aI38562
aI38563
aI38570
aI38579
aI38589
aI38592
aI38600
aI38607
aI38608
aI38612
aI38618
aI38620
aI38622
aI38624
aI38625
aI38626
aI38638
aI38639
aI38640
aI38642
aI38650
aI38652
aI38654
aI38659
aI38661
aI38662
aI38663
aI38667
aI38670
aI38672
aI38685
aI38688
aI38691
aI38692
aI38696
aI38700
aI38702
aI38703
aI38705
aI38709
aI38710
aI38712
aI38718
aI38725
aI38727
aI38728
aI38730
aI38733
aI38742
aI38750
aI38753
aI38758
aI38769
aI38770
aI38771
aI38775
aI38776
aI38780
aI38785
aI38786
aI38788
aI38789
aI38790
aI38793
aI38798
aI38800
aI38804
aI38810
aI38811
aI38813
aI38820
aI38825
aI38830
aI38831
aI38834
aI38835
aI38836
aI38837
aI38849
aI38850
aI38853
aI38854
aI38855
aI38860
aI38862
aI38867
aI38871
aI38875
aI38880
aI38882
aI38885
aI38888
aI38891
aI38894
aI38895
aI38896
aI38900
aI38905
aI38910
aI38911
aI38914
aI38915
aI38916
aI38920
aI38922
aI38927
aI38929
aI38930
aI38933
aI38934
aI38935
aI38938
aI38939
aI38942
aI38950
aI38954
aI38965
aI38966
aI38974
aI38975
aI38981
aI38983
aI38985
aI38988
aI38994
aI38999
aI39000
aI39001
aI39002
aI39005
aI39006
aI39008
aI39010
aI39012
aI39018
aI39019
aI39020
aI39022
aI39031
aI39036
aI39041
aI39046
aI39050
aI39064
aI39066
aI39067
aI39068
aI39070
aI39073
aI39075
aI39080
aI39081
aI39082
aI39090
aI39092
aI39095
aI39100
aI39101
aI39102
aI39103
aI39104
aI39105
aI39112
aI39116
aI39117
aI39119
aI39121
aI39124
aI39129
aI39131
aI39136
aI39150
aI39156
aI39158
aI39160
aI39172
aI39176
aI39177
aI39182
aI39184
aI39185
aI39189
aI39190
aI39196
aI39197
aI39200
aI39202
aI39205
aI39208
aI39209
aI39213
aI39226
aI39228
aI39230
aI39237
aI39246
aI39247
aI39250
aI39260
aI39264
aI39265
aI39266
aI39280
aI39281
aI39283
aI39286
aI39290
aI39292
aI39294
aI39300
aI39303
aI39308
aI39310
aI39312
aI39314
aI39315
aI39321
aI39322
aI39323
aI39327
aI39328
aI39333
aI39334
aI39335
aI39337
aI39344
aI39348
aI39349
aI39350
aI39351
aI39352
aI39356
aI39362
aI39377
aI39379
aI39380
aI39387
aI39392
aI39395
aI39399
aI39400
aI39410
aI39422
aI39426
aI39429
aI39430
aI39436
aI39444
aI39447
aI39468
aI39470
aI39484
aI39487
aI39490
aI39491
aI39495
aI39497
aI39499
aI39500
aI39506
aI39510
aI39511
aI39517
aI39518
aI39519
aI39520
aI39524
aI39526
aI39535
aI39536
aI39538
aI39551
aI39556
aI39558
aI39559
aI39562
aI39565
aI39567
aI39570
aI39582
aI39596
aI39598
aI39600
aI39602
aI39603
aI39605
aI39608
aI39610
aI39619
aI39630
aI39631
aI39635
aI39640
aI39646
aI39650
aI39658
aI39660
aI39663
aI39664
aI39668
aI39671
aI39673
aI39674
aI39680
aI39687
aI39693
aI39698
aI39700
aI39717
aI39725
aI39728
aI39729
aI39730
aI39731
aI39732
aI39733
aI39737
aI39747
aI39750
aI39758
aI39764
aI39783
aI39789
aI39793
aI39800
aI39812
aI39813
aI39820
aI39830
aI39832
aI39837
aI39838
aI39841
aI39847
aI39850
aI39852
aI39856
aI39860
aI39869
aI39870
aI39871
aI39880
aI39888
aI39889
aI39890
aI39899
aI39900
aI39901
aI39902
aI39905
aI39910
aI39912
aI39926
aI39929
aI39932
aI39935
aI39936
aI39942
aI39949
aI39950
aI39955
aI39959
aI39960
aI39964
aI39970
aI39975
aI39988
aI39996
aI39998
aI40000
aI40003
aI40004
aI40005
aI40006
aI40008
aI40010
aI40011
aI40012
aI40013
aI40014
aI40015
aI40017
aI40020
aI40021
aI40025
aI40026
aI40028
aI40030
aI40031
aI40033
aI40035
aI40039
aI40040
aI40042
aI40045
aI40046
aI40048
aI40050
aI40051
aI40053
aI40055
aI40056
aI40058
aI40059
aI40060
aI40061
aI40065
aI40066
aI40067
aI40068
aI40070
aI40071
aI40075
aI40076
aI40079
aI40080
aI40081
aI40082
aI40088
aI40089
aI40090
aI40094
aI40096
aI40100
aI40107
aI40110
aI40115
aI40118
aI40120
aI40122
aI40123
aI40128
aI40129
aI40132
aI40136
aI40138
aI40140
aI40142
aI40145
aI40148
aI40149
aI40150
aI40154
aI40156
aI40157
aI40159
aI40161
aI40162
aI40165
aI40168
aI40170
aI40171
aI40175
aI40179
aI40184
aI40185
aI40189
aI40191
aI40197
aI40198
aI40200
aI40206
aI40207
aI40209
aI40213
aI40215
aI40219
aI40220
aI40225
aI40227
aI40232
aI40233
aI40238
aI40239
aI40241
aI40242
aI40246
aI40250
aI40251
aI40263
aI40265
aI40266
aI40269
aI40270
aI40271
aI40277
aI40281
aI40287
aI40288
aI40291
aI40292
aI40295
aI40296
aI40299
aI40300
aI40301
aI40310
aI40311
aI40312
aI40314
aI40317
aI40326
aI40327
aI40330
aI40333
aI40334
aI40337
aI40338
aI40340
aI40342
aI40343
aI40350
aI40353
aI40354
aI40356
aI40360
aI40376
aI40380
aI40382
aI40400
aI40409
aI40411
aI40414
aI40416
aI40422
aI40427
aI40433
aI40435
aI40436
aI40437
aI40440
aI40443
aI40446
aI40449
aI40453
aI40457
aI40461
aI40464
aI40467
aI40469
aI40470
aI40475
aI40477
aI40479
aI40485
aI40486
aI40488
aI40495
aI40496
aI40500
aI40504
aI40505
aI40506
aI40508
aI40510
aI40513
aI40515
aI40523
aI40525
aI40528
aI40532
aI40534
aI40538
aI40541
aI40542
aI40545
aI40550
aI40556
aI40558
aI40560
aI40562
aI40565
aI40572
aI40575
aI40585
aI40586
aI40588
aI40593
aI40595
aI40596
aI40600
aI40602
aI40606
aI40610
aI40614
aI40616
aI40619
aI40620
aI40625
aI40636
aI40637
aI40638
aI40639
aI40645
aI40646
aI40648
aI40650
aI40652
aI40654
aI40658
aI40664
aI40675
aI40678
aI40687
aI40697
aI40698
aI40700
aI40707
aI40709
aI40730
aI40733
aI40744
aI40747
aI40749
aI40750
aI40754
aI40755
aI40758
aI40759
aI40760
aI40761
aI40767
aI40769
aI40775
aI40779
aI40783
aI40785
aI40789
aI40792
aI40793
aI40799
aI40800
aI40802
aI40805
aI40806
aI40807
aI40811
aI40812
aI40813
aI40815
aI40816
aI40818
aI40820
aI40821
aI40825
aI40826
aI40827
aI40829
aI40830
aI40844
aI40847
aI40849
aI40854
aI40858
aI40860
aI40863
aI40870
aI40899
aI40900
aI40908
aI40911
aI40912
aI40925
aI40931
aI40934
aI40944
aI40950
aI40953
aI40954
aI40965
aI40966
aI40968
aI40970
aI40978
aI40979
aI40983
aI40984
aI40992
aI40993
aI40994
aI40997
aI41000
aI41002
aI41005
aI41006
aI41010
aI41012
aI41013
aI41016
aI41019
aI41025
aI41029
aI41030
aI41032
aI41033
aI41035
aI41038
aI41040
aI41042
aI41043
aI41045
aI41047
aI41048
aI41049
aI41050
aI41055
aI41060
aI41062
aI41063
aI41066
aI41067
aI41069
aI41070
aI41078
aI41081
aI41082
aI41084
aI41088
aI41091
aI41100
aI41101
aI41104
aI41113
aI41122
aI41127
aI41130
aI41131
aI41141
aI41143
aI41145
aI41150
aI41153
aI41156
aI41159
aI41160
aI41161
aI41163
aI41166
aI41170
aI41172
aI41173
aI41182
aI41184
aI41188
aI41189
aI41200
aI41203
aI41205
aI41206
aI41223
aI41225
aI41230
aI41232
aI41241
aI41242
aI41244
aI41247
aI41250
aI41252
aI41253
aI41256
aI41257
aI41262
aI41264
aI41278
aI41280
aI41281
aI41291
aI41300
aI41301
aI41303
aI41305
aI41312
aI41321
aI41325
aI41331
aI41340
aI41341
aI41347
aI41351
aI41352
aI41358
aI41361
aI41362
aI41363
aI41366
aI41371
aI41373
aI41375
aI41377
aI41382
aI41398
aI41400
aI41401
aI41406
aI41408
aI41413
aI41429
aI41432
aI41436
aI41437
aI41439
aI41443
aI41456
aI41457
aI41471
aI41474
aI41476
aI41478
aI41480
aI41481
aI41486
aI41493
aI41496
aI41500
aI41502
aI41510
aI41511
aI41514
aI41516
aI41517
aI41520
aI41522
aI41524
aI41525
aI41526
aI41530
aI41531
aI41540
aI41548
aI41550
aI41551
aI41552
aI41557
aI41561
aI41577
aI41580
aI41583
aI41591
aI41592
aI41593
aI41596
aI41600
aI41602
aI41603
aI41607
aI41608
aI41613
aI41617
aI41620
aI41621
aI41622
aI41624
aI41625
aI41631
aI41632
aI41634
aI41637
aI41642
aI41644
aI41645
aI41650
aI41655
aI41662
aI41667
aI41679
aI41680
aI41693
aI41700
aI41703
aI41710
aI41720
aI41727
aI41728
aI41730
aI41733
aI41741
aI41743
aI41749
aI41750
aI41752
aI41761
aI41765
aI41767
aI41770
aI41775
aI41780
aI41786
aI41787
aI41793
aI41794
aI41797
aI41800
aI41807
aI41808
aI41810
aI41813
aI41816
aI41817
aI41821
aI41826
aI41827
aI41828
aI41835
aI41837
aI41839
aI41843
aI41847
aI41849
aI41850
aI41851
aI41855
aI41868
aI41874
aI41878
aI41880
aI41885
aI41887
aI41889
aI41894
aI41897
aI41898
aI41900
aI41912
aI41913
aI41914
aI41926
aI41938
aI41941
aI41942
aI41953
aI41958
aI41960
aI41961
aI41963
aI41967
aI41980
aI41985
aI41988
aI41992
aI41995
aI41999
aI42000
aI42004
aI42005
aI42006
aI42010
aI42011
aI42013
aI42015
aI42019
aI42020
aI42023
aI42025
aI42026
aI42027
aI42028
aI42032
aI42035
aI42037
aI42040
aI42048
aI42050
aI42054
aI42056
aI42060
aI42065
aI42067
aI42072
aI42097
aI42098
aI42100
aI42103
aI42104
aI42110
aI42112
aI42114
aI42115
aI42118
aI42119
aI42120
aI42123
aI42125
aI42132
aI42137
aI42138
aI42146
aI42150
aI42159
aI42161
aI42162
aI42176
aI42182
aI42191
aI42196
aI42200
aI42209
aI42218
aI42221
aI42227
aI42228
aI42234
aI42245
aI42246
aI42250
aI42252
aI42254
aI42257
aI42263
aI42265
aI42270
aI42272
aI42282
aI42294
aI42297
aI42299
aI42300
aI42304
aI42307
aI42314
aI42320
aI42325
aI42327
aI42331
aI42333
aI42350
aI42356
aI42360
aI42370
aI42374
aI42379
aI42385
aI42390
aI42392
aI42393
aI42394
aI42400
aI42410
aI42417
aI42418
aI42431
aI42432
aI42434
aI42435
aI42441
aI42443
aI42444
aI42446
aI42450
aI42453
aI42459
aI42462
aI42472
aI42474
aI42479
aI42485
aI42486
aI42488
aI42500
aI42501
aI42505
aI42507
aI42510
aI42512
aI42514
aI42517
aI42527
aI42528
aI42534
aI42538
aI42541
aI42550
aI42556
aI42562
aI42565
aI42569
aI42570
aI42572
aI42574
aI42576
aI42580
aI42581
aI42586
aI42587
aI42590
aI42592
aI42593
aI42594
aI42595
aI42600
aI42602
aI42603
aI42606
aI42608
aI42610
aI42615
aI42619
aI42623
aI42624
aI42627
aI42630
aI42635
aI42637
aI42640
aI42644
aI42647
aI42650
aI42651
aI42652
aI42653
aI42657
aI42661
aI42667
aI42670
aI42673
aI42681
aI42684
aI42686
aI42690
aI42694
aI42700
aI42702
aI42707
aI42725
aI42728
aI42732
aI42733
aI42740
aI42744
aI42745
aI42747
aI42750
aI42759
aI42760
aI42765
aI42768
aI42770
aI42771
aI42775
aI42781
aI42790
aI42794
aI42800
aI42801
aI42807
aI42809
aI42815
aI42820
aI42826
aI42829
aI42832
aI42838
aI42840
aI42844
aI42848
aI42860
aI42863
aI42864
aI42867
aI42872
aI42873
aI42880
aI42892
aI42894
aI42896
aI42900
aI42910
aI42911
aI42916
aI42920
aI42927
aI42931
aI42932
aI42937
aI42938
aI42940
aI42950
aI42952
aI42954
aI42955
aI42966
aI42972
aI42974
aI42990
aI42994
aI42999
aI43000
aI43003
aI43005
aI43010
aI43011
aI43012
aI43013
aI43015
aI43020
aI43021
aI43022
aI43025
aI43040
aI43042
aI43045
aI43050
aI43056
aI43060
aI43062
aI43065
aI43072
aI43073
aI43075
aI43078
aI43083
aI43090
aI43092
aI43096
aI43100
aI43106
aI43107
aI43110
aI43115
aI43118
aI43120
aI43140
aI43148
aI43150
aI43151
aI43165
aI43168
aI43170
aI43178
aI43185
aI43190
aI43200
aI43203
aI43205
aI43207
aI43208
aI43210
aI43212
aI43222
aI43225
aI43234
aI43235
aI43238
aI43240
aI43241
aI43243
aI43250
aI43252
aI43253
aI43255
aI43261
aI43267
aI43268
aI43273
aI43275
aI43280
aI43281
aI43283
aI43286
aI43290
aI43291
aI43292
aI43293
aI43300
aI43306
aI43310
aI43312
aI43314
aI43320
aI43321
aI43333
aI43338
aI43340
aI43346
aI43348
aI43350
aI43353
aI43361
aI43380
aI43383
aI43388
aI43395
aI43398
aI43399
aI43400
aI43403
aI43411
aI43414
aI43416
aI43422
aI43425
aI43433
aI43435
aI43436
aI43447
aI43450
aI43452
aI43457
aI43458
aI43467
aI43471
aI43474
aI43475
aI43476
aI43477
aI43488
aI43495
aI43499
aI43500
aI43505
aI43508
aI43518
aI43525
aI43527
aI43528
aI43532
aI43533
aI43536
aI43537
aI43550
aI43551
aI43554
aI43556
aI43560
aI43565
aI43570
aI43575
aI43583
aI43585
aI43590
aI43593
aI43600
aI43605
aI43608
aI43610
aI43615
aI43616
aI43622
aI43634
aI43636
aI43637
aI43641
aI43645
aI43647
aI43650
aI43653
aI43656
aI43659
aI43664
aI43666
aI43679
aI43680
aI43681
aI43683
aI43686
aI43687
aI43691
aI43694
aI43697
aI43700
aI43706
aI43708
aI43716
aI43717
aI43723
aI43726
aI43729
aI43730
aI43736
aI43739
aI43740
aI43750
aI43753
aI43755
aI43756
aI43761
aI43764
aI43769
aI43770
aI43784
aI43792
aI43796
aI43800
aI43803
aI43810
aI43812
aI43813
aI43815
aI43817
aI43818
aI43833
aI43835
aI43836
aI43841
aI43846
aI43847
aI43850
aI43852
aI43862
aI43864
aI43870
aI43875
aI43877
aI43879
aI43886
aI43889
aI43890
aI43891
aI43893
aI43895
aI43897
aI43900
aI43909
aI43921
aI43926
aI43931
aI43933
aI43934
aI43935
aI43940
aI43942
aI43943
aI43945
aI43950
aI43957
aI43964
aI43968
aI43972
aI43978
aI43979
aI43980
aI43982
aI43985
aI43992
aI43996
aI44000
aI44006
aI44010
aI44012
aI44013
aI44021
aI44022
aI44023
aI44024
aI44026
aI44027
aI44032
aI44034
aI44035
aI44042
aI44048
aI44049
aI44050
aI44053
aI44055
aI44057
aI44075
aI44080
aI44083
aI44084
aI44087
aI44092
aI44094
aI44099
aI44100
aI44105
aI44108
aI44110
aI44115
aI44117
aI44125
aI44126
aI44127
aI44133
aI44134
aI44143
aI44149
aI44150
aI44152
aI44160
aI44163
aI44175
aI44178
aI44180
aI44183
aI44184
aI44188
aI44192
aI44194
aI44200
aI44204
aI44207
aI44215
aI44216
aI44217
aI44220
aI44221
aI44230
aI44231
aI44232
aI44236
aI44249
aI44250
aI44261
aI44286
aI44287
aI44290
aI44300
aI44305
aI44306
aI44310
aI44320
aI44325
aI44327
aI44328
aI44330
aI44332
aI44335
aI44345
aI44350
aI44355
aI44364
aI44366
aI44375
aI44383
aI44389
aI44394
aI44400
aI44403
aI44405
aI44406
aI44424
aI44431
aI44436
aI44438
aI44440
aI44442
aI44450
aI44453
aI44462
aI44472
aI44478
aI44479
aI44486
aI44488
aI44491
aI44495
aI44500
aI44501
aI44503
aI44504
aI44515
aI44519
aI44527
aI44537
aI44542
aI44550
aI44551
aI44554
aI44556
aI44557
aI44561
aI44575
aI44583
aI44584
aI44586
aI44594
aI44595
aI44596
aI44597
aI44605
aI44610
aI44625
aI44627
aI44628
aI44637
aI44641
aI44644
aI44647
aI44650
aI44651
aI44656
aI44658
aI44659
aI44668
aI44670
aI44671
aI44673
aI44676
aI44682
aI44690
aI44697
aI44700
aI44704
aI44706
aI44709
aI44710
aI44720
aI44724
aI44726
aI44730
aI44734
aI44737
aI44744
aI44746
aI44747
aI44750
aI44753
aI44755
aI44758
aI44759
aI44766
aI44778
aI44780
aI44787
aI44789
aI44790
aI44792
aI44800
aI44808
aI44811
aI44813
aI44815
aI44816
aI44822
aI44828
aI44838
aI44845
aI44852
aI44867
aI44868
aI44870
aI44872
aI44880
aI44881
aI44889
aI44890
aI44898
aI44900
aI44903
aI44905
aI44907
aI44915
aI44919
aI44928
aI44930
aI44931
aI44934
aI44940
aI44944
aI44950
aI44973
aI44976
aI44981
aI44983
aI44986
aI44990
aI44993
aI44997
aI44998
aI45000
aI45003
aI45004
aI45005
aI45006
aI45007
aI45008
aI45009
aI45010
aI45011
aI45012
aI45013
aI45015
aI45020
aI45021
aI45023
aI45025
aI45030
aI45032
aI45038
aI45043
aI45044
aI45045
aI45050
aI45056
aI45060
aI45062
aI45063
aI45064
aI45066
aI45068
aI45069
aI45071
aI45073
aI45076
aI45079
aI45093
aI45094
aI45100
aI45106
aI45109
aI45110
aI45111
aI45113
aI45114
aI45115
aI45120
aI45123
aI45130
aI45131
aI45135
aI45150
aI45153
aI45154
aI45157
aI45159
aI45160
aI45173
aI45175
aI45178
aI45188
aI45192
aI45195
aI45200
aI45207
aI45210
aI45211
aI45212
aI45218
aI45220
aI45221
aI45225
aI45229
aI45232
aI45238
aI45239
aI45240
aI45241
aI45242
aI45250
aI45253
aI45256
aI45260
aI45261
aI45262
aI45264
aI45278
aI45288
aI45294
aI45300
aI45302
aI45305
aI45308
aI45314
aI45316
aI45317
aI45320
aI45323
aI45325
aI45327
aI45334
aI45355
aI45356
aI45362
aI45369
aI45383
aI45384
aI45388
aI45390
aI45394
aI45399
aI45400
aI45405
aI45414
aI45416
aI45423
aI45425
aI45430
aI45433
aI45437
aI45446
aI45450
aI45468
aI45477
aI45479
aI45480
aI45482
aI45485
aI45488
aI45489
aI45490
aI45500
aI45504
aI45510
aI45511
aI45513
aI45515
aI45517
aI45520
aI45523
aI45528
aI45534
aI45546
aI45550
aI45551
aI45552
aI45555
aI45565
aI45575
aI45580
aI45582
aI45584
aI45588
aI45594
aI45598
aI45600
aI45602
aI45604
aI45605
aI45608
aI45616
aI45619
aI45635
aI45643
aI45645
aI45650
aI45654
aI45657
aI45670
aI45672
aI45674
aI45675
aI45680
aI45689
aI45692
aI45694
aI45696
aI45700
aI45710
aI45715
aI45720
aI45724
aI45730
aI45731
aI45744
aI45749
aI45750
aI45755
aI45756
aI45760
aI45765
aI45766
aI45778
aI45779
aI45780
aI45783
aI45789
aI45790
aI45792
aI45800
aI45806
aI45810
aI45817
aI45832
aI45834
aI45839
aI45856
aI45860
aI45863
aI45867
aI45869
aI45873
aI45875
aI45882
aI45885
aI45890
aI45892
aI45897
aI45900
aI45904
aI45913
aI45918
aI45931
aI45932
aI45934
aI45935
aI45936
aI45937
aI45939
aI45941
aI45943
aI45951
aI45957
aI45960
aI45965
aI45968
aI45971
aI45974
aI45983
aI45993
aI45995
aI46000
aI46003
aI46004
aI46005
aI46006
aI46008
aI46010
aI46013
aI46014
aI46015
aI46017
aI46018
aI46020
aI46023
aI46024
aI46025
aI46030
aI46040
aI46042
aI46045
aI46047
aI46049
aI46051
aI46052
aI46054
aI46057
aI46058
aI46060
aI46061
aI46062
aI46064
aI46065
aI46069
aI46077
aI46081
aI46085
aI46088
aI46092
aI46094
aI46100
aI46101
aI46105
aI46110
aI46115
aI46128
aI46130
aI46134
aI46135
aI46140
aI46153
aI46160
aI46163
aI46167
aI46181
aI46189
aI46200
aI46201
aI46203
aI46207
aI46212
aI46217
aI46222
aI46225
aI46245
aI46250
aI46255
aI46260
aI46268
aI46269
aI46274
aI46278
aI46280
aI46284
aI46289
aI46292
aI46298
aI46300
aI46301
aI46318
aI46331
aI46340
aI46348
aI46350
aI46353
aI46359
aI46360
aI46362
aI46364
aI46369
aI46382
aI46384
aI46386
aI46387
aI46389
aI46394
aI46397
aI46400
aI46414
aI46415
aI46416
aI46422
aI46424
aI46425
aI46432
aI46434
aI46435
aI46441
aI46453
aI46460
aI46478
aI46481
aI46500
aI46502
aI46505
aI46508
aI46509
aI46510
aI46526
aI46535
aI46540
aI46542
aI46546
aI46548
aI46550
aI46560
aI46565
aI46575
aI46588
aI46592
aI46597
aI46602
aI46610
aI46624
aI46628
aI46634
aI46636
aI46654
aI46656
aI46660
aI46666
aI46667
aI46669
aI46670
aI46676
aI46680
aI46683
aI46688
aI46689
aI46690
aI46695
aI46698
aI46700
aI46704
aI46715
aI46717
aI46723
aI46730
aI46738
aI46742
aI46750
aI46756
aI46766
aI46772
aI46784
aI46792
aI46794
aI46800
aI46807
aI46810
aI46817
aI46820
aI46823
aI46824
aI46827
aI46831
aI46832
aI46838
aI46839
aI46844
aI46845
aI46846
aI46850
aI46855
aI46859
aI46860
aI46864
aI46868
aI46875
aI46878
aI46899
aI46900
aI46908
aI46916
aI46922
aI46925
aI46928
aI46933
aI46934
aI46938
aI46946
aI46950
aI46951
aI46954
aI46956
aI46959
aI46960
aI46968
aI46976
aI46980
aI46984
aI46988
aI46999
aI47000
aI47003
aI47008
aI47010
aI47014
aI47019
aI47020
aI47034
aI47039
aI47040
aI47045
aI47046
aI47048
aI47055
aI47074
aI47079
aI47093
aI47094
aI47100
aI47103
aI47105
aI47111
aI47113
aI47120
aI47128
aI47138
aI47139
aI47152
aI47163
aI47164
aI47166
aI47173
aI47176
aI47179
aI47190
aI47196
aI47199
aI47200
aI47201
aI47205
aI47207
aI47219
aI47228
aI47232
aI47237
aI47240
aI47250
aI47255
aI47268
aI47278
aI47298
aI47315
aI47320
aI47327
aI47328
aI47334
aI47340
aI47346
aI47351
aI47352
aI47360
aI47370
aI47371
aI47375
aI47381
aI47382
aI47384
aI47387
aI47389
aI47400
aI47401
aI47403
aI47407
aI47408
aI47411
aI47412
aI47422
aI47427
aI47445
aI47448
aI47453
aI47454
aI47456
aI47458
aI47459
aI47460
aI47476
aI47480
aI47486
aI47488
aI47492
aI47500
aI47506
aI47510
aI47511
aI47520
aI47523
aI47526
aI47528
aI47530
aI47542
aI47544
aI47545
aI47555
aI47562
aI47571
aI47572
aI47575
aI47579
aI47580
aI47582
aI47590
aI47594
aI47596
aI47599
aI47600
aI47601
aI47607
aI47611
aI47618
aI47622
aI47624
aI47631
aI47634
aI47636
aI47650
aI47655
aI47656
aI47667
aI47675
aI47690
aI47692
aI47693
aI47698
aI47699
aI47700
aI47703
aI47705
aI47708
aI47712
aI47713
aI47715
aI47720
aI47727
aI47730
aI47732
aI47734
aI47750
aI47753
aI47754
aI47757
aI47760
aI47769
aI47772
aI47774
aI47775
aI47785
aI47788
aI47793
aI47795
aI47800
aI47810
aI47817
aI47819
aI47840
aI47845
aI47855
aI47862
aI47872
aI47873
aI47878
aI47881
aI47890
aI47893
aI47900
aI47902
aI47923
aI47934
aI47940
aI47945
aI47950
aI47967
aI47970
aI47975
aI47979
aI47984
aI47986
aI47995
aI47998
aI47999
aI48000
aI48001
aI48003
aI48006
aI48007
aI48008
aI48009
aI48010
aI48015
aI48016
aI48020
aI48022
aI48025
aI48027
aI48040
aI48041
aI48043
aI48050
aI48052
aI48053
aI48058
aI48061
aI48062
aI48075
aI48077
aI48079
aI48080
aI48081
aI48094
aI48100
aI48102
aI48104
aI48108
aI48109
aI48110
aI48111
aI48119
aI48120
aI48121
aI48126
aI48127
aI48128
aI48144
aI48160
aI48165
aI48171
aI48172
aI48175
aI48183
aI48188
aI48190
aI48199
aI48200
aI48205
aI48206
aI48219
aI48230
aI48234
aI48237
aI48240
aI48246
aI48249
aI48250
aI48251
aI48263
aI48264
aI48271
aI48273
aI48274
aI48275
aI48287
aI48291
aI48300
aI48306
aI48316
aI48318
aI48323
aI48325
aI48343
aI48347
aI48349
aI48350
aI48357
aI48360
aI48368
aI48373
aI48378
aI48383
aI48386
aI48400
aI48402
aI48412
aI48414
aI48419
aI48420
aI48433
aI48444
aI48448
aI48449
aI48450
aI48454
aI48459
aI48460
aI48463
aI48468
aI48470
aI48484
aI48485
aI48500
aI48505
aI48510
aI48520
aI48525
aI48529
aI48545
aI48555
aI48557
aI48573
aI48578
aI48581
aI48586
aI48587
aI48590
aI48599
aI48600
aI48610
aI48622
aI48623
aI48628
aI48640
aI48650
aI48653
aI48660
aI48666
aI48667
aI48669
aI48673
aI48677
aI48678
aI48679
aI48680
aI48697
aI48700
aI48702
aI48714
aI48718
aI48730
aI48734
aI48738
aI48745
aI48750
aI48752
aI48755
aI48757
aI48759
aI48763
aI48764
aI48767
aI48773
aI48774
aI48776
aI48780
aI48794
aI48795
aI48800
aI48802
aI48805
aI48807
aI48812
aI48814
aI48826
aI48828
aI48831
aI48840
aI48849
aI48861
aI48865
aI48871
aI48872
aI48875
aI48876
aI48880
aI48894
aI48900
aI48901
aI48906
aI48914
aI48924
aI48929
aI48935
aI48941
aI48945
aI48957
aI48961
aI48966
aI48970
aI48980
aI48981
aI48982
aI48984
aI48986
aI48994
aI48995
aI48999
aI49000
aI49001
aI49005
aI49008
aI49009
aI49011
aI49013
aI49023
aI49026
aI49027
aI49042
aI49045
aI49046
aI49050
aI49051
aI49059
aI49060
aI49073
aI49075
aI49081
aI49082
aI49087
aI49088
aI49090
aI49094
aI49096
aI49100
aI49113
aI49119
aI49122
aI49125
aI49129
aI49149
aI49150
aI49157
aI49159
aI49172
aI49173
aI49178
aI49180
aI49188
aI49192
aI49193
aI49195
aI49196
aI49197
aI49198
aI49200
aI49202
aI49203
aI49213
aI49215
aI49230
aI49231
aI49234
aI49235
aI49238
aI49242
aI49247
aI49250
aI49262
aI49268
aI49275
aI49283
aI49300
aI49301
aI49312
aI49318
aI49345
aI49348
aI49350
aI49353
aI49364
aI49369
aI49383
aI49385
aI49388
aI49393
aI49395
aI49397
aI49399
aI49400
aI49404
aI49408
aI49410
aI49416
aI49421
aI49434
aI49435
aI49437
aI49438
aI49441
aI49450
aI49456
aI49460
aI49469
aI49472
aI49475
aI49476
aI49478
aI49479
aI49480
aI49484
aI49495
aI49500
aI49502
aI49504
aI49508
aI49509
aI49510
aI49514
aI49521
aI49522
aI49530
aI49535
aI49537
aI49540
aI49544
aI49548
aI49549
aI49550
aI49551
aI49554
aI49555
aI49560
aI49563
aI49564
aI49572
aI49575
aI49576
aI49577
aI49579
aI49580
aI49584
aI49600
aI49608
aI49609
aI49610
aI49613
aI49615
aI49616
aI49619
aI49622
aI49625
aI49629
aI49635
aI49638
aI49639
aI49643
aI49644
aI49663
aI49670
aI49671
aI49675
aI49680
aI49684
aI49697
aI49700
aI49703
aI49710
aI49711
aI49712
aI49720
aI49723
aI49725
aI49735
aI49737
aI49745
aI49750
aI49764
aI49770
aI49775
aI49777
aI49783
aI49787
aI49794
aI49799
aI49807
aI49812
aI49816
aI49819
aI49820
aI49828
aI49840
aI49841
aI49846
aI49847
aI49848
aI49855
aI49857
aI49858
aI49862
aI49866
aI49868
aI49871
aI49873
aI49877
aI49880
aI49882
aI49888
aI49889
aI49895
aI49900
aI49901
aI49903
aI49906
aI49913
aI49920
aI49936
aI49939
aI49945
aI49950
aI49953
aI49954
aI49955
aI49956
aI49960
aI49972
aI49980
aI49984
aI49986
aI49990
aI49993
aI50000
aI50003
aI50006
aI50008
aI50010
aI50011
aI50012
aI50015
aI50017
aI50019
aI50020
aI50022
aI50023
aI50025
aI50026
aI50028
aI50035
aI50040
aI50042
aI50046
aI50048
aI50050
aI50052
aI50058
aI50062
aI50064
aI50066
aI50067
aI50068
aI50069
aI50075
aI50078
aI50080
aI50083
aI50091
aI50094
aI50100
aI50103
aI50106
aI50109
aI50111
aI50112
aI50113
aI50116
aI50120
aI50122
aI50123
aI50125
aI50130
aI50137
aI50142
aI50143
aI50150
aI50151
aI50152
aI50158
aI50159
aI50171
aI50173
aI50174
aI50176
aI50184
aI50188
aI50200
aI50206
aI50210
aI50211
aI50215
aI50218
aI50220
aI50221
aI50250
aI50254
aI50255
aI50275
aI50276
aI50281
aI50287
aI50290
aI50291
aI50297
aI50300
aI50301
aI50303
aI50308
aI50321
aI50323
aI50328
aI50330
aI50334
aI50347
aI50358
aI50373
aI50387
aI50394
aI50400
aI50404
aI50405
aI50412
aI50413
aI50425
aI50431
aI50432
aI50433
aI50435
aI50439
aI50443
aI50444
aI50447
aI50449
aI50450
aI50460
aI50474
aI50482
aI50485
aI50487
aI50489
aI50494
aI50500
aI50505
aI50525
aI50528
aI50531
aI50535
aI50540
aI50544
aI50546
aI50550
aI50554
aI50560
aI50565
aI50569
aI50572
aI50583
aI50585
aI50588
aI50600
aI50605
aI50608
aI50613
aI50614
aI50616
aI50624
aI50625
aI50630
aI50632
aI50633
aI50635
aI50639
aI50644
aI50650
aI50656
aI50659
aI50676
aI50678
aI50679
aI50680
aI50682
aI50686
aI50688
aI50700
aI50704
aI50710
aI50733
aI50736
aI50742
aI50744
aI50746
aI50750
aI50755
aI50757
aI50765
aI50768
aI50771
aI50786
aI50800
aI50817
aI50818
aI50821
aI50831
aI50844
aI50848
aI50850
aI50855
aI50856
aI50867
aI50870
aI50878
aI50879
aI50887
aI50890
aI50897
aI50900
aI50906
aI50907
aI50932
aI50945
aI50950
aI50960
aI50962
aI50966
aI50968
aI50975
aI50977
aI50979
aI50984
aI50989
aI51000
aI51001
aI51002
aI51005
aI51006
aI51009
aI51010
aI51015
aI51017
aI51019
aI51020
aI51022
aI51024
aI51025
aI51028
aI51032
aI51034
aI51035
aI51040
aI51050
aI51063
aI51074
aI51075
aI51076
aI51081
aI51095
aI51098
aI51100
aI51102
aI51107
aI51108
aI51112
aI51114
aI51116
aI51125
aI51127
aI51134
aI51135
aI51137
aI51150
aI51157
aI51168
aI51170
aI51171
aI51173
aI51177
aI51181
aI51186
aI51188
aI51200
aI51205
aI51210
aI51220
aI51230
aI51231
aI51235
aI51248
aI51250
aI51261
aI51264
aI51266
aI51269
aI51272
aI51276
aI51286
aI51289
aI51294
aI51297
aI51298
aI51300
aI51304
aI51305
aI51314
aI51319
aI51321
aI51329
aI51334
aI51346
aI51359
aI51375
aI51382
aI51389
aI51400
aI51412
aI51424
aI51429
aI51439
aI51440
aI51443
aI51449
aI51456
aI51457
aI51464
aI51474
aI51475
aI51486
aI51488
aI51490
aI51496
aI51498
aI51500
aI51505
aI51511
aI51520
aI51525
aI51532
aI51550
aI51560
aI51564
aI51571
aI51573
aI51578
aI51579
aI51581
aI51592
aI51600
aI51604
aI51605
aI51606
aI51610
aI51621
aI51625
aI51627
aI51628
aI51634
aI51638
aI51642
aI51650
aI51655
aI51657
aI51671
aI51676
aI51680
aI51699
aI51700
aI51708
aI51714
aI51715
aI51721
aI51723
aI51730
aI51737
aI51738
aI51742
aI51743
aI51748
aI51749
aI51756
aI51763
aI51770
aI51773
aI51779
aI51784
aI51786
aI51793
aI51800
aI51801
aI51807
aI51821
aI51822
aI51826
aI51833
aI51834
aI51842
aI51850
aI51857
aI51873
aI51875
aI51876
aI51888
aI51890
aI51896
aI51899
aI51900
aI51909
aI51913
aI51925
aI51926
aI51928
aI51931
aI51938
aI51940
aI51941
aI51949
aI51958
aI51966
aI51970
aI51976
aI51979
aI51986
aI51995
aI52000
aI52005
aI52008
aI52010
aI52012
aI52015
aI52020
aI52021
aI52022
aI52023
aI52025
aI52032
aI52037
aI52038
aI52039
aI52044
aI52050
aI52054
aI52057
aI52060
aI52062
aI52069
aI52070
aI52075
aI52080
aI52082
aI52083
aI52090
aI52095
aI52100
aI52108
aI52111
aI52113
aI52119
aI52120
aI52123
aI52125
aI52129
aI52134
aI52146
aI52150
aI52156
aI52175
aI52182
aI52190
aI52191
aI52192
aI52194
aI52200
aI52201
aI52204
aI52213
aI52215
aI52217
aI52218
aI52221
aI52224
aI52225
aI52226
aI52230
aI52233
aI52236
aI52247
aI52250
aI52258
aI52259
aI52260
aI52267
aI52270
aI52275
aI52280
aI52283
aI52285
aI52291
aI52298
aI52300
aI52303
aI52307
aI52309
aI52310
aI52312
aI52315
aI52320
aI52334
aI52341
aI52348
aI52350
aI52360
aI52370
aI52371
aI52375
aI52388
aI52398
aI52400
aI52403
aI52409
aI52414
aI52427
aI52431
aI52440
aI52446
aI52448
aI52450
aI52458
aI52479
aI52480
aI52486
aI52493
aI52494
aI52495
aI52500
aI52507
aI52510
aI52512
aI52518
aI52520
aI52525
aI52529
aI52539
aI52540
aI52541
aI52543
aI52545
aI52546
aI52550
aI52551
aI52555
aI52556
aI52563
aI52566
aI52569
aI52573
aI52575
aI52585
aI52589
aI52593
aI52594
aI52597
aI52600
aI52601
aI52603
aI52605
aI52614
aI52625
aI52627
aI52632
aI52638
aI52648
aI52650
aI52652
aI52657
aI52658
aI52666
aI52695
aI52700
aI52720
aI52724
aI52725
aI52737
aI52739
aI52740
aI52750
aI52753
aI52756
aI52762
aI52765
aI52769
aI52776
aI52777
aI52780
aI52787
aI52798
aI52800
aI52801
aI52818
aI52819
aI52827
aI52836
aI52839
aI52847
aI52850
aI52851
aI52866
aI52869
aI52882
aI52884
aI52890
aI52894
aI52914
aI52915
aI52920
aI52928
aI52934
aI52940
aI52947
aI52950
aI52951
aI52960
aI52991
aI52998
aI53000
aI53004
aI53005
aI53009
aI53010
aI53012
aI53019
aI53025
aI53030
aI53034
aI53035
aI53040
aI53042
aI53048
aI53050
aI53051
aI53055
aI53062
aI53069
aI53070
aI53075
aI53077
aI53080
aI53090
aI53091
aI53096
aI53098
aI53100
aI53101
aI53105
aI53113
aI53119
aI53121
aI53122
aI53128
aI53133
aI53150
aI53175
aI53186
aI53188
aI53189
aI53196
aI53200
aI53206
aI53211
aI53220
aI53224
aI53225
aI53226
aI53227
aI53229
aI53234
aI53242
aI53248
aI53250
aI53258
aI53260
aI53266
aI53270
aI53288
aI53290
aI53296
aI53297
aI53298
aI53299
aI53300
aI53302
aI53304
aI53310
aI53311
aI53315
aI53317
aI53318
aI53319
aI53329
aI53333
aI53334
aI53336
aI53337
aI53339
aI53340
aI53342
aI53346
aI53349
aI53354
aI53362
aI53374
aI53378
aI53380
aI53382
aI53388
aI53389
aI53392
aI53398
aI53399
aI53400
aI53401
aI53410
aI53416
aI53421
aI53430
aI53441
aI53454
aI53455
aI53459
aI53460
aI53463
aI53469
aI53471
aI53477
aI53479
aI53490
aI53492
aI53496
aI53499
aI53500
aI53508
aI53515
aI53517
aI53518
aI53525
aI53526
aI53534
aI53535
aI53537
aI53549
aI53552
aI53555
aI53562
aI53563
aI53568
aI53570
aI53571
aI53586
aI53600
aI53616
aI53620
aI53624
aI53636
aI53637
aI53642
aI53643
aI53644
aI53648
aI53657
aI53672
aI53673
aI53682
aI53684
aI53688
aI53690
aI53691
aI53692
aI53714
aI53715
aI53716
aI53726
aI53727
aI53736
aI53750
aI53755
aI53757
aI53758
aI53759
aI53769
aI53775
aI53797
aI53800
aI53816
aI53826
aI53828
aI53829
aI53838
aI53843
aI53850
aI53855
aI53858
aI53864
aI53866
aI53874
aI53878
aI53879
aI53880
aI53881
aI53885
aI53886
aI53893
aI53895
aI53900
aI53904
aI53932
aI53933
aI53937
aI53939
aI53950
aI53959
aI53961
aI53995
aI53997
aI54000
aI54003
aI54005
aI54006
aI54008
aI54012
aI54013
aI54014
aI54015
aI54017
aI54018
aI54020
aI54023
aI54025
aI54026
aI54027
aI54035
aI54040
aI54045
aI54048
aI54049
aI54050
aI54052
aI54053
aI54056
aI54060
aI54066
aI54072
aI54075
aI54080
aI54081
aI54091
aI54100
aI54101
aI54102
aI54103
aI54111
aI54116
aI54124
aI54132
aI54134
aI54145
aI54148
aI54153
aI54155
aI54161
aI54163
aI54182
aI54185
aI54188
aI54190
aI54205
aI54209
aI54224
aI54248
aI54250
aI54254
aI54267
aI54280
aI54288
aI54294
aI54298
aI54314
aI54330
aI54342
aI54345
aI54347
aI54349
aI54351
aI54365
aI54369
aI54380
aI54389
aI54395
aI54400
aI54401
aI54416
aI54417
aI54420
aI54436
aI54439
aI54440
aI54442
aI54444
aI54450
aI54462
aI54465
aI54477
aI54481
aI54493
aI54494
aI54500
aI54503
aI54504
aI54505
aI54508
aI54510
aI54514
aI54522
aI54526
aI54528
aI54535
aI54540
aI54544
aI54550
aI54561
aI54563
aI54566
aI54569
aI54581
aI54586
aI54591
aI54593
aI54600
aI54605
aI54607
aI54612
aI54629
aI54632
aI54633
aI54640
aI54657
aI54658
aI54670
aI54671
aI54675
aI54692
aI54695
aI54700
aI54704
aI54706
aI54709
aI54713
aI54724
aI54732
aI54738
aI54750
aI54751
aI54752
aI54755
aI54757
aI54762
aI54777
aI54780
aI54800
aI54807
aI54808
aI54816
aI54841
aI54845
aI54848
aI54850
aI54851
aI54860
aI54870
aI54875
aI54884
aI54895
aI54896
aI54914
aI54920
aI54925
aI54938
aI54940
aI54943
aI54950
aI54960
aI54964
aI54965
aI54988
aI54990
aI54993
aI54994
aI54995
aI54996
aI54999
aI55000
aI55004
aI55005
aI55006
aI55007
aI55010
aI55018
aI55020
aI55021
aI55030
aI55032
aI55038
aI55041
aI55045
aI55050
aI55053
aI55055
aI55056
aI55065
aI55067
aI55070
aI55072
aI55073
aI55075
aI55080
aI55083
aI55090
aI55100
aI55109
aI55110
aI55115
aI55125
aI55132
aI55133
aI55140
aI55141
aI55145
aI55146
aI55148
aI55150
aI55153
aI55162
aI55174
aI55177
aI55178
aI55179
aI55186
aI55196
aI55199
aI55200
aI55201
aI55206
aI55209
aI55216
aI55244
aI55250
aI55253
aI55265
aI55275
aI55278
aI55282
aI55296
aI55300
aI55305
aI55311
aI55312
aI55320
aI55325
aI55329
aI55332
aI55340
aI55350
aI55352
aI55357
aI55359
aI55360
aI55368
aI55381
aI55392
aI55400
aI55413
aI55420
aI55425
aI55430
aI55432
aI55440
aI55445
aI55447
aI55448
aI55450
aI55452
aI55455
aI55457
aI55465
aI55474
aI55482
aI55486
aI55487
aI55495
aI55500
aI55502
aI55507
aI55508
aI55514
aI55520
aI55527
aI55535
aI55548
aI55549
aI55550
aI55562
aI55575
aI55582
aI55593
aI55596
aI55600
aI55602
aI55625
aI55629
aI55631
aI55650
aI55674
aI55679
aI55698
aI55700
aI55707
aI55708
aI55716
aI55720
aI55723
aI55725
aI55727
aI55732
aI55734
aI55739
aI55750
aI55768
aI55789
aI55790
aI55798
aI55800
aI55803
aI55805
aI55806
aI55808
aI55823
aI55833
aI55846
aI55848
aI55860
aI55865
aI55878
aI55903
aI55920
aI55943
aI55956
aI55957
aI55962
aI55970
aI55972
aI55993
aI56000
aI56004
aI56006
aI56009
aI56010
aI56011
aI56015
aI56018
aI56020
aI56026
aI56028
aI56031
aI56035
aI56036
aI56045
aI56048
aI56050
aI56055
aI56057
aI56061
aI56063
aI56066
aI56067
aI56069
aI56070
aI56078
aI56080
aI56100
aI56102
aI56105
aI56110
aI56112
aI56116
aI56118
aI56120
aI56124
aI56139
aI56141
aI56160
aI56167
aI56170
aI56190
aI56194
aI56199
aI56200
aI56209
aI56216
aI56225
aI56238
aI56243
aI56247
aI56249
aI56250
aI56254
aI56260
aI56264
aI56266
aI56267
aI56271
aI56275
aI56282
aI56288
aI56289
aI56293
aI56295
aI56300
aI56301
aI56325
aI56329
aI56336
aI56341
aI56344
aI56350
aI56355
aI56356
aI56357
aI56377
aI56387
aI56389
aI56392
aI56400
aI56414
aI56430
aI56435
aI56436
aI56455
aI56464
aI56465
aI56488
aI56490
aI56491
aI56500
aI56503
aI56504
aI56520
aI56525
aI56527
aI56536
aI56540
aI56546
aI56550
aI56587
aI56600
aI56607
aI56615
aI56618
aI56630
aI56633
aI56640
aI56643
aI56648
aI56650
aI56656
aI56661
aI56676
aI56678
aI56680
aI56700
aI56724
aI56725
aI56751
aI56762
aI56784
aI56792
aI56800
aI56801
aI56809
aI56818
aI56831
aI56848
aI56850
aI56866
aI56868
aI56875
aI56888
aI56892
aI56900
aI56916
aI56923
aI56931
aI56933
aI56945
aI56955
aI56960
aI56968
aI56977
aI56978
aI56985
aI56986
aI56992
aI56996
aI56997
aI57000
aI57004
aI57006
aI57007
aI57008
aI57010
aI57012
aI57013
aI57014
aI57018
aI57020
aI57026
aI57032
aI57043
aI57044
aI57050
aI57052
aI57053
aI57062
aI57065
aI57073
aI57077
aI57080
aI57089
aI57100
aI57102
aI57116
aI57120
aI57125
aI57138
aI57148
aI57152
aI57156
aI57167
aI57169
aI57171
aI57174
aI57184
aI57195
aI57197
aI57200
aI57203
aI57207
aI57213
aI57216
aI57217
aI57250
aI57259
aI57280
aI57283
aI57286
aI57300
aI57313
aI57319
aI57320
aI57333
aI57345
aI57350
aI57358
aI57367
aI57377
aI57378
aI57380
aI57392
aI57400
aI57403
aI57412
aI57416
aI57420
aI57425
aI57426
aI57444
aI57445
aI57446
aI57451
aI57452
aI57457
aI57474
aI57488
aI57496
aI57498
aI57500
aI57501
aI57505
aI57507
aI57509
aI57540
aI57543
aI57554
aI57562
aI57575
aI57596
aI57600
aI57607
aI57612
aI57613
aI57615
aI57619
aI57630
aI57635
aI57639
aI57650
aI57656
aI57658
aI57665
aI57671
aI57675
aI57682
aI57696
aI57699
aI57700
aI57718
aI57720
aI57730
aI57739
aI57743
aI57746
aI57750
aI57755
aI57774
aI57776
aI57782
aI57785
aI57789
aI57793
aI57798
aI57800
aI57803
aI57810
aI57816
aI57823
aI57828
aI57834
aI57836
aI57837
aI57849
aI57857
aI57860
aI57876
aI57878
aI57880
aI57900
aI57907
aI57926
aI57934
aI57950
aI57961
aI57971
aI57982
aI57989
aI57990
aI57995
aI58000
aI58005
aI58010
aI58013
aI58015
aI58022
aI58025
aI58045
aI58050
aI58053
aI58055
aI58060
aI58067
aI58080
aI58088
aI58094
aI58097
aI58098
aI58100
aI58102
aI58107
aI58120
aI58122
aI58124
aI58125
aI58131
aI58144
aI58146
aI58150
aI58159
aI58160
aI58167
aI58185
aI58191
aI58195
aI58200
aI58215
aI58232
aI58237
aI58240
aI58245
aI58250
aI58254
aI58263
aI58271
aI58276
aI58281
aI58288
aI58289
aI58298
aI58300
aI58303
aI58305
aI58307
aI58309
aI58318
aI58325
aI58328
aI58330
aI58334
aI58335
aI58338
aI58348
aI58349
aI58352
aI58353
aI58369
aI58375
aI58392
aI58399
aI58400
aI58406
aI58410
aI58413
aI58419
aI58421
aI58429
aI58430
aI58445
aI58448
aI58450
aI58454
aI58471
aI58481
aI58486
aI58488
aI58495
aI58500
aI58503
aI58505
aI58515
aI58535
aI58548
aI58549
aI58554
aI58555
aI58563
aI58583
aI58585
aI58592
aI58595
aI58600
aI58604
aI58607
aI58614
aI58615
aI58623
aI58638
aI58645
aI58649
aI58650
aI58656
aI58684
aI58689
aI58695
aI58700
aI58707
aI58714
aI58739
aI58742
aI58749
aI58755
aI58760
aI58765
aI58792
aI58795
aI58800
aI58801
aI58840
aI58862
aI58864
aI58870
aI58872
aI58875
aI58896
aI58898
aI58899
aI58901
aI58911
aI58916
aI58919
aI58934
aI58940
aI58943
aI58944
aI58960
aI58966
aI58971
aI58973
aI58981
aI58991
aI58999
aI59000
aI59005
aI59020
aI59021
aI59025
aI59027
aI59029
aI59035
aI59040
aI59044
aI59050
aI59053
aI59070
aI59072
aI59084
aI59085
aI59098
aI59100
aI59102
aI59123
aI59131
aI59138
aI59147
aI59150
aI59159
aI59175
aI59179
aI59185
aI59190
aI59200
aI59207
aI59219
aI59224
aI59228
aI59241
aI59250
aI59254
aI59257
aI59266
aI59271
aI59274
aI59282
aI59288
aI59293
aI59295
aI59300
aI59304
aI59316
aI59320
aI59334
aI59336
aI59340
aI59345
aI59349
aI59354
aI59359
aI59360
aI59368
aI59380
aI59384
aI59386
aI59400
aI59402
aI59403
aI59416
aI59426
aI59427
aI59429
aI59439
aI59446
aI59448
aI59450
aI59461
aI59482
aI59498
aI59500
aI59513
aI59523
aI59541
aI59550
aI59564
aI59570
aI59571
aI59579
aI59583
aI59600
aI59602
aI59647
aI59650
aI59652
aI59654
aI59676
aI59683
aI59698
aI59700
aI59704
aI59723
aI59729
aI59738
aI59739
aI59740
aI59751
aI59753
aI59754
aI59767
aI59770
aI59771
aI59776
aI59778
aI59782
aI59787
aI59800
aI59802
aI59842
aI59845
aI59853
aI59913
aI59926
aI59928
aI59936
aI59947
aI59952
aI59955
aI59958
aI59970
aI59972
aI59987
aI59990
aI59992
aI60000
aI60003
aI60005
aI60006
aI60007
aI60008
aI60009
aI60010
aI60012
aI60013
aI60015
aI60016
aI60024
aI60025
aI60026
aI60027
aI60028
aI60032
aI60040
aI60042
aI60045
aI60047
aI60048
aI60050
aI60054
aI60055
aI60058
aI60060
aI60061
aI60066
aI60067
aI60072
aI60074
aI60075
aI60082
aI60084
aI60090
aI60098
aI60099
aI60100
aI60110
aI60111
aI60115
aI60118
aI60122
aI60131
aI60133
aI60140
aI60149
aI60150
aI60156
aI60158
aI60165
aI60166
aI60175
aI60182
aI60184
aI60185
aI60187
aI60191
aI60193
aI60195
aI60196
aI60198
aI60199
aI60200
aI60202
aI60206
aI60209
aI60226
aI60230
aI60231
aI60235
aI60239
aI60250
aI60253
aI60255
aI60258
aI60259
aI60268
aI60269
aI60270
aI60281
aI60290
aI60298
aI60300
aI60305
aI60308
aI60320
aI60322
aI60332
aI60336
aI60350
aI60364
aI60375
aI60377
aI60379
aI60400
aI60403
aI60404
aI60408
aI60415
aI60422
aI60430
aI60434
aI60442
aI60445
aI60446
aI60471
aI60477
aI60480
aI60481
aI60482
aI60483
aI60494
aI60495
aI60500
aI60508
aI60520
aI60532
aI60540
aI60543
aI60557
aI60567
aI60572
aI60575
aI60579
aI60587
aI60588
aI60595
aI60596
aI60600
aI60611
aI60612
aI60625
aI60627
aI60630
aI60632
aI60633
aI60635
aI60638
aI60641
aI60646
aI60650
aI60655
aI60669
aI60683
aI60684
aI60687
aI60716
aI60718
aI60720
aI60725
aI60726
aI60730
aI60737
aI60746
aI60750
aI60773
aI60774
aI60784
aI60795
aI60800
aI60809
aI60813
aI60819
aI60830
aI60847
aI60848
aI60850
aI60862
aI60870
aI60873
aI60884
aI60885
aI60900
aI60906
aI60927
aI60931
aI60938
aI60944
aI60949
aI60950
aI60955
aI60964
aI60977
aI61000
aI61013
aI61017
aI61021
aI61023
aI61041
aI61050
aI61061
aI61064
aI61078
aI61100
aI61105
aI61110
aI61117
aI61120
aI61123
aI61125
aI61133
aI61135
aI61139
aI61147
aI61150
aI61158
aI61159
aI61187
aI61194
aI61196
aI61198
aI61200
aI61216
aI61225
aI61229
aI61240
aI61248
aI61249
aI61250
aI61272
aI61274
aI61279
aI61280
aI61284
aI61300
aI61301
aI61318
aI61325
aI61393
aI61400
aI61402
aI61410
aI61411
aI61415
aI61440
aI61458
aI61500
aI61508
aI61515
aI61542
aI61550
aI61555
aI61567
aI61568
aI61572
aI61575
aI61581
aI61588
aI61596
aI61600
aI61607
aI61609
aI61631
aI61648
aI61651
aI61654
aI61670
aI61671
aI61673
aI61676
aI61693
aI61695
aI61696
aI61719
aI61721
aI61723
aI61732
aI61741
aI61749
aI61750
aI61763
aI61770
aI61772
aI61782
aI61788
aI61797
aI61800
aI61802
aI61806
aI61815
aI61825
aI61843
aI61845
aI61860
aI61875
aI61892
aI61895
aI61900
aI61908
aI61916
aI61930
aI61935
aI61936
aI61938
aI61940
aI61967
aI61982
aI62000
aI62001
aI62008
aI62009
aI62010
aI62012
aI62013
aI62015
aI62023
aI62024
aI62027
aI62034
aI62050
aI62071
aI62073
aI62080
aI62086
aI62087
aI62088
aI62100
aI62102
aI62110
aI62118
aI62125
aI62143
aI62150
aI62163
aI62171
aI62179
aI62188
aI62196
aI62200
aI62203
aI62207
aI62210
aI62212
aI62228
aI62232
aI62250
aI62251
aI62300
aI62302
aI62312
aI62316
aI62345
aI62365
aI62368
aI62370
aI62373
aI62385
aI62388
aI62400
aI62423
aI62425
aI62428
aI62450
aI62467
aI62475
aI62483
aI62489
aI62492
aI62498
aI62500
aI62504
aI62512
aI62519
aI62528
aI62550
aI62551
aI62552
aI62556
aI62565
aI62569
aI62583
aI62584
aI62591
aI62597
aI62601
aI62602
aI62603
aI62610
aI62615
aI62618
aI62624
aI62664
aI62680
aI62688
aI62696
aI62700
aI62705
aI62712
aI62717
aI62729
aI62735
aI62742
aI62749
aI62750
aI62756
aI62762
aI62763
aI62772
aI62781
aI62791
aI62800
aI62807
aI62832
aI62834
aI62846
aI62881
aI62890
aI62893
aI62900
aI62901
aI62920
aI62925
aI62931
aI62934
aI62937
aI62939
aI62940
aI62942
aI62955
aI62960
aI62964
aI62972
aI63000
aI63001
aI63003
aI63005
aI63010
aI63013
aI63015
aI63016
aI63020
aI63025
aI63030
aI63038
aI63039
aI63041
aI63043
aI63046
aI63050
aI63053
aI63060
aI63082
aI63092
aI63094
aI63100
aI63109
aI63122
aI63124
aI63142
aI63144
aI63152
aI63156
aI63157
aI63176
aI63177
aI63180
aI63199
aI63200
aI63225
aI63233
aI63236
aI63238
aI63256
aI63268
aI63270
aI63273
aI63274
aI63283
aI63284
aI63291
aI63301
aI63318
aI63324
aI63327
aI63330
aI63333
aI63336
aI63349
aI63350
aI63373
aI63376
aI63380
aI63384
aI63399
aI63400
aI63401
aI63405
aI63406
aI63415
aI63417
aI63421
aI63428
aI63433
aI63481
aI63482
aI63483
aI63484
aI63485
aI63487
aI63492
aI63499
aI63500
aI63507
aI63520
aI63531
aI63535
aI63542
aI63545
aI63546
aI63550
aI63551
aI63554
aI63557
aI63569
aI63576
aI63580
aI63583
aI63600
aI63608
aI63610
aI63625
aI63643
aI63650
aI63653
aI63664
aI63668
aI63679
aI63700
aI63720
aI63742
aI63748
aI63750
aI63763
aI63765
aI63770
aI63771
aI63772
aI63796
aI63809
aI63815
aI63819
aI63833
aI63837
aI63842
aI63883
aI63893
aI63897
aI63903
aI63908
aI63920
aI63925
aI63932
aI63950
aI63961
aI63962
aI63972
aI63978
aI63986
aI64000
aI64006
aI64007
aI64010
aI64012
aI64018
aI64020
aI64022
aI64025
aI64029
aI64032
aI64036
aI64038
aI64050
aI64052
aI64075
aI64080
aI64083
aI64093
aI64100
aI64120
aI64152
aI64153
aI64156
aI64166
aI64174
aI64180
aI64183
aI64200
aI64203
aI64204
aI64214
aI64225
aI64245
aI64260
aI64265
aI64269
aI64272
aI64282
aI64300
aI64310
aI64313
aI64318
aI64339
aI64350
aI64356
aI64361
aI64369
aI64375
aI64380
aI64382
aI64398
aI64406
aI64407
aI64410
aI64438
aI64450
aI64468
aI64470
aI64500
aI64522
aI64525
aI64535
aI64538
aI64544
aI64546
aI64550
aI64551
aI64553
aI64568
aI64573
aI64590
aI64600
aI64605
aI64609
aI64621
aI64627
aI64632
aI64640
aI64650
aI64669
aI64700
aI64702
aI64711
aI64723
aI64750
aI64765
aI64778
aI64779
aI64781
aI64800
aI64810
aI64820
aI64821
aI64822
aI64825
aI64833
aI64850
aI64862
aI64869
aI64881
aI64883
aI64885
aI64894
aI64900
aI64905
aI64913
aI64926
aI65000
aI65003
aI65004
aI65006
aI65008
aI65010
aI65011
aI65012
aI65013
aI65015
aI65017
aI65020
aI65025
aI65030
aI65043
aI65045
aI65050
aI65052
aI65054
aI65063
aI65068
aI65074
aI65075
aI65080
aI65081
aI65100
aI65102
aI65103
aI65109
aI65113
aI65122
aI65123
aI65131
aI65134
aI65146
aI65150
aI65156
aI65159
aI65173
aI65180
aI65186
aI65196
aI65200
aI65208
aI65210
aI65216
aI65219
aI65239
aI65245
aI65249
aI65250
aI65251
aI65270
aI65280
aI65282
aI65300
aI65313
aI65335
aI65344
aI65348
aI65349
aI65350
aI65361
aI65373
aI65374
aI65386
aI65390
aI65400
aI65415
aI65417
aI65432
aI65452
aI65475
aI65478
aI65482
aI65500
aI65503
aI65505
aI65511
aI65512
aI65515
aI65534
aI65557
aI65567
aI65575
aI65576
aI65600
aI65609
aI65620
aI65625
aI65634
aI65658
aI65684
aI65691
aI65694
aI65700
aI65704
aI65706
aI65726
aI65750
aI65752
aI65760
aI65772
aI65780
aI65800
aI65805
aI65829
aI65837
aI65858
aI65865
aI65874
aI65881
aI65894
aI65900
aI65946
aI65954
aI65955
aI65958
aI65972
aI65983
aI65998
aI66000
aI66002
aI66006
aI66011
aI66013
aI66014
aI66025
aI66027
aI66030
aI66038
aI66043
aI66045
aI66053
aI66057
aI66063
aI66067
aI66071
aI66075
aI66085
aI66087
aI66088
aI66095
aI66097
aI66100
aI66108
aI66110
aI66120
aI66122
aI66124
aI66125
aI66130
aI66133
aI66135
aI66140
aI66146
aI66159
aI66190
aI66200
aI66207
aI66210
aI66238
aI66248
aI66250
aI66266
aI66298
aI66300
aI66301
aI66307
aI66309
aI66338
aI66346
aI66350
aI66361
aI66365
aI66372
aI66378
aI66400
aI66410
aI66417
aI66435
aI66441
aI66450
aI66475
aI66480
aI66500
aI66510
aI66518
aI66540
aI66544
aI66548
aI66560
aI66572
aI66580
aI66581
aI66586
aI66600
aI66608
aI66612
aI66635
aI66637
aI66649
aI66650
aI66656
aI66664
aI66665
aI66667
aI66679
aI66692
aI66694
aI66718
aI66722
aI66750
aI66770
aI66772
aI66779
aI66780
aI66782
aI66797
aI66801
aI66802
aI66805
aI66838
aI66841
aI66873
aI66875
aI66893
aI66900
aI66917
aI66942
aI66946
aI66950
aI66960
aI66965
aI66967
aI66976
aI66981
aI66990
aI67000
aI67010
aI67012
aI67015
aI67025
aI67026
aI67030
aI67038
aI67051
aI67060
aI67067
aI67075
aI67100
aI67103
aI67149
aI67169
aI67180
aI67182
aI67187
aI67193
aI67200
aI67203
aI67207
aI67222
aI67235
aI67240
aI67251
aI67253
aI67267
aI67270
aI67271
aI67273
aI67275
aI67278
aI67290
aI67298
aI67300
aI67303
aI67330
aI67343
aI67437
aI67461
aI67463
aI67470
aI67474
aI67490
aI67496
aI67498
aI67500
aI67503
aI67505
aI67508
aI67509
aI67518
aI67520
aI67522
aI67525
aI67526
aI67528
aI67542
aI67548
aI67550
aI67571
aI67579
aI67584
aI67596
aI67597
aI67600
aI67629
aI67639
aI67648
aI67650
aI67667
aI67672
aI67679
aI67680
aI67681
aI67696
aI67700
aI67720
aI67750
aI67785
aI67791
aI67800
aI67806
aI67807
aI67810
aI67818
aI67824
aI67829
aI67851
aI67861
aI67892
aI67900
aI67914
aI67925
aI67934
aI67944
aI67950
aI67969
aI67989
aI67994
aI67995
aI68000
aI68005
aI68007
aI68010
aI68015
aI68016
aI68017
aI68019
aI68021
aI68039
aI68050
aI68067
aI68072
aI68094
aI68097
aI68100
aI68105
aI68120
aI68125
aI68145
aI68157
aI68177
aI68190
aI68195
aI68200
aI68201
aI68219
aI68220
aI68225
aI68248
aI68250
aI68255
aI68269
aI68272
aI68278
aI68284
aI68297
aI68302
aI68306
aI68342
aI68350
aI68358
aI68360
aI68364
aI68368
aI68382
aI68391
aI68411
aI68416
aI68418
aI68428
aI68440
aI68455
aI68482
aI68493
aI68500
aI68521
aI68523
aI68543
aI68550
aI68555
aI68558
aI68565
aI68569
aI68579
aI68582
aI68587
aI68588
aI68593
aI68599
aI68600
aI68607
aI68639
aI68640
aI68641
aI68644
aI68650
aI68660
aI68661
aI68676
aI68685
aI68713
aI68737
aI68738
aI68743
aI68744
aI68750
aI68754
aI68800
aI68825
aI68845
aI68854
aI68861
aI68862
aI68870
aI68875
aI68881
aI68885
aI68891
aI68910
aI68912
aI68920
aI68925
aI68928
aI68932
aI68935
aI68948
aI68950
aI68961
aI68967
aI68969
aI68974
aI68986
aI68988
aI68994
aI69000
aI69007
aI69021
aI69029
aI69044
aI69055
aI69068
aI69069
aI69076
aI69082
aI69096
aI69100
aI69107
aI69108
aI69143
aI69144
aI69147
aI69149
aI69155
aI69175
aI69181
aI69187
aI69201
aI69202
aI69208
aI69214
aI69217
aI69226
aI69229
aI69251
aI69268
aI69270
aI69293
aI69300
aI69360
aI69363
aI69364
aI69367
aI69407
aI69409
aI69410
aI69419
aI69420
aI69428
aI69434
aI69448
aI69452
aI69472
aI69474
aI69490
aI69496
aI69500
aI69507
aI69509
aI69513
aI69516
aI69519
aI69539
aI69546
aI69550
aI69579
aI69580
aI69610
aI69625
aI69626
aI69631
aI69638
aI69641
aI69678
aI69702
aI69718
aI69736
aI69745
aI69750
aI69758
aI69765
aI69788
aI69800
aI69801
aI69803
aI69813
aI69816
aI69832
aI69850
aI69851
aI69865
aI69875
aI69879
aI69915
aI69943
aI69964
aI69968
aI69992
aI69993
aI69995
aI69998
aI70000
aI70002
aI70003
aI70005
aI70007
aI70008
aI70009
aI70010
aI70012
aI70013
aI70018
aI70020
aI70023
aI70024
aI70025
aI70026
aI70039
aI70040
aI70041
aI70042
aI70047
aI70050
aI70057
aI70060
aI70062
aI70065
aI70067
aI70070
aI70075
aI70084
aI70085
aI70087
aI70100
aI70112
aI70113
aI70124
aI70125
aI70129
aI70131
aI70135
aI70145
aI70150
aI70157
aI70158
aI70175
aI70185
aI70200
aI70201
aI70203
aI70215
aI70216
aI70218
aI70227
aI70242
aI70250
aI70255
aI70256
aI70285
aI70292
aI70299
aI70300
aI70305
aI70312
aI70314
aI70316
aI70329
aI70340
aI70350
aI70357
aI70360
aI70364
aI70370
aI70380
aI70388
aI70400
aI70420
aI70422
aI70424
aI70430
aI70443
aI70450
aI70452
aI70460
aI70463
aI70469
aI70471
aI70472
aI70500
aI70505
aI70519
aI70523
aI70528
aI70532
aI70538
aI70547
aI70551
aI70552
aI70558
aI70582
aI70625
aI70635
aI70647
aI70665
aI70675
aI70678
aI70679
aI70693
aI70700
aI70703
aI70720
aI70732
aI70746
aI70748
aI70750
aI70762
aI70792
aI70800
aI70814
aI70844
aI70845
aI70936
aI70945
aI70951
aI70958
aI70971
aI70974
aI70982
aI70990
aI70996
aI71000
aI71009
aI71030
aI71036
aI71045
aI71054
aI71065
aI71077
aI71081
aI71092
aI71100
aI71123
aI71125
aI71133
aI71150
aI71170
aI71200
aI71210
aI71214
aI71225
aI71230
aI71250
aI71254
aI71275
aI71277
aI71293
aI71295
aI71300
aI71306
aI71312
aI71314
aI71318
aI71320
aI71321
aI71323
aI71326
aI71350
aI71360
aI71363
aI71371
aI71400
aI71425
aI71436
aI71448
aI71450
aI71451
aI71485
aI71487
aI71495
aI71500
aI71505
aI71510
aI71513
aI71519
aI71534
aI71540
aI71541
aI71550
aI71578
aI71592
aI71594
aI71600
aI71607
aI71610
aI71618
aI71620
aI71624
aI71643
aI71663
aI71676
aI71679
aI71681
aI71683
aI71696
aI71728
aI71729
aI71755
aI71768
aI71774
aI71783
aI71800
aI71820
aI71821
aI71825
aI71829
aI71841
aI71859
aI71866
aI71872
aI71887
aI71902
aI71945
aI71950
aI71965
aI71990
aI72000
aI72005
aI72007
aI72009
aI72010
aI72013
aI72015
aI72020
aI72022
aI72023
aI72025
aI72030
aI72031
aI72034
aI72041
aI72050
aI72052
aI72054
aI72060
aI72070
aI72072
aI72082
aI72091
aI72095
aI72100
aI72103
aI72117
aI72150
aI72168
aI72179
aI72200
aI72223
aI72240
aI72249
aI72250
aI72300
aI72304
aI72333
aI72337
aI72343
aI72345
aI72346
aI72350
aI72383
aI72424
aI72434
aI72442
aI72454
aI72480
aI72488
aI72496
aI72500
aI72508
aI72510
aI72525
aI72563
aI72569
aI72587
aI72588
aI72599
aI72600
aI72605
aI72617
aI72628
aI72631
aI72635
aI72668
aI72670
aI72700
aI72701
aI72710
aI72712
aI72722
aI72751
aI72773
aI72799
aI72800
aI72809
aI72813
aI72820
aI72831
aI72833
aI72835
aI72838
aI72850
aI72851
aI72869
aI72875
aI72907
aI72910
aI72923
aI72927
aI72935
aI72957
aI72963
aI72970
aI73000
aI73005
aI73008
aI73012
aI73025
aI73030
aI73035
aI73043
aI73050
aI73051
aI73062
aI73079
aI73086
aI73092
aI73094
aI73100
aI73103
aI73114
aI73116
aI73125
aI73130
aI73134
aI73170
aI73179
aI73183
aI73184
aI73200
aI73210
aI73250
aI73275
aI73281
aI73287
aI73288
aI73289
aI73308
aI73312
aI73313
aI73320
aI73326
aI73329
aI73333
aI73334
aI73353
aI73362
aI73368
aI73375
aI73383
aI73389
aI73393
aI73399
aI73400
aI73403
aI73416
aI73425
aI73442
aI73450
aI73451
aI73476
aI73481
aI73483
aI73486
aI73500
aI73505
aI73507
aI73513
aI73515
aI73549
aI73570
aI73575
aI73580
aI73600
aI73618
aI73650
aI73674
aI73700
aI73718
aI73731
aI73745
aI73748
aI73754
aI73768
aI73779
aI73788
aI73794
aI73800
aI73801
aI73805
aI73829
aI73851
aI73861
aI73888
aI73904
aI73925
aI73937
aI73943
aI73953
aI73976
aI73987
aI73996
aI74000
aI74003
aI74009
aI74013
aI74027
aI74039
aI74040
aI74050
aI74057
aI74069
aI74082
aI74091
aI74100
aI74101
aI74111
aI74123
aI74125
aI74135
aI74139
aI74140
aI74144
aI74158
aI74172
aI74186
aI74200
aI74203
aI74244
aI74245
aI74250
aI74283
aI74284
aI74300
aI74305
aI74307
aI74329
aI74339
aI74360
aI74372
aI74386
aI74400
aI74401
aI74430
aI74447
aI74450
aI74453
aI74464
aI74471
aI74476
aI74499
aI74500
aI74506
aI74537
aI74538
aI74540
aI74554
aI74562
aI74568
aI74574
aI74578
aI74585
aI74600
aI74616
aI74618
aI74645
aI74668
aI74700
aI74719
aI74741
aI74748
aI74750
aI74760
aI74770
aI74771
aI74772
aI74785
aI74800
aI74809
aI74814
aI74821
aI74829
aI74845
aI74854
aI74898
aI74928
aI74942
aI74946
aI74950
aI74981
aI74996
aI75000
aI75002
aI75005
aI75008
aI75009
aI75010
aI75011
aI75012
aI75013
aI75014
aI75015
aI75018
aI75025
aI75027
aI75034
aI75035
aI75036
aI75039
aI75048
aI75050
aI75055
aI75060
aI75062
aI75063
aI75065
aI75078
aI75092
aI75100
aI75109
aI75120
aI75122
aI75125
aI75130
aI75137
aI75140
aI75144
aI75150
aI75154
aI75160
aI75161
aI75164
aI75169
aI75174
aI75179
aI75185
aI75186
aI75189
aI75190
aI75192
aI75200
aI75208
aI75213
aI75220
aI75221
aI75237
aI75241
aI75250
aI75260
aI75267
aI75269
aI75275
aI75279
aI75280
aI75300
aI75350
aI75352
aI75353
aI75359
aI75380
aI75389
aI75391
aI75400
aI75440
aI75445
aI75472
aI75479
aI75481
aI75491
aI75500
aI75513
aI75518
aI75525
aI75546
aI75550
aI75552
aI75560
aI75561
aI75564
aI75590
aI75600
aI75604
aI75614
aI75625
aI75666
aI75681
aI75691
aI75698
aI75725
aI75742
aI75754
aI75756
aI75759
aI75763
aI75764
aI75770
aI75777
aI75789
aI75790
aI75795
aI75801
aI75811
aI75851
aI75855
aI75869
aI75880
aI75881
aI75887
aI75918
aI75958
aI75960
aI75990
aI76000
aI76005
aI76010
aI76038
aI76055
aI76064
aI76067
aI76079
aI76088
aI76100
aI76118
aI76120
aI76150
aI76153
aI76155
aI76163
aI76170
aI76171
aI76180
aI76185
aI76189
aI76200
aI76227
aI76249
aI76250
aI76282
aI76293
aI76321
aI76355
aI76363
aI76364
aI76370
aI76375
aI76415
aI76441
aI76456
aI76495
aI76499
aI76500
aI76507
aI76515
aI76518
aI76520
aI76521
aI76523
aI76524
aI76539
aI76545
aI76560
aI76564
aI76583
aI76585
aI76587
aI76600
aI76627
aI76629
aI76636
aI76643
aI76650
aI76676
aI76678
aI76681
aI76685
aI76692
aI76700
aI76740
aI76743
aI76750
aI76751
aI76755
aI76763
aI76800
aI76843
aI76850
aI76870
aI76879
aI76911
aI76918
aI76919
aI76960
aI76966
aI76967
aI76990
aI77000
aI77002
aI77012
aI77015
aI77020
aI77033
aI77045
aI77046
aI77052
aI77100
aI77117
aI77140
aI77147
aI77150
aI77175
aI77186
aI77198
aI77200
aI77215
aI77216
aI77263
aI77282
aI77295
aI77298
aI77299
aI77330
aI77350
aI77352
aI77364
aI77381
aI77392
aI77400
aI77417
aI77419
aI77425
aI77429
aI77430
aI77468
aI77497
aI77500
aI77503
aI77510
aI77511
aI77518
aI77519
aI77550
aI77588
aI77600
aI77604
aI77618
aI77621
aI77632
aI77639
aI77640
aI77642
aI77645
aI77648
aI77649
aI77706
aI77730
aI77736
aI77770
aI77839
aI77846
aI77854
aI77892
aI77894
aI77901
aI77921
aI77948
aI77957
aI77981
aI77985
aI77994
aI78000
aI78005
aI78007
aI78010
aI78017
aI78020
aI78027
aI78054
aI78056
aI78057
aI78062
aI78067
aI78068
aI78071
aI78075
aI78100
aI78105
aI78106
aI78125
aI78133
aI78141
aI78150
aI78161
aI78164
aI78171
aI78200
aI78224
aI78247
aI78263
aI78298
aI78300
aI78308
aI78311
aI78312
aI78315
aI78338
aI78400
aI78405
aI78420
aI78424
aI78428
aI78450
aI78490
aI78500
aI78515
aI78521
aI78525
aI78540
aI78548
aI78562
aI78568
aI78615
aI78645
aI78650
aI78681
aI78683
aI78700
aI78711
aI78741
aI78754
aI78769
aI78800
aI78838
aI78839
aI78841
aI78850
aI78854
aI78865
aI78871
aI78873
aI78900
aI78901
aI78903
aI78906
aI78935
aI78945
aI78970
aI79000
aI79008
aI79010
aI79020
aI79025
aI79030
aI79039
aI79050
aI79053
aI79061
aI79095
aI79132
aI79214
aI79238
aI79266
aI79270
aI79289
aI79294
aI79300
aI79307
aI79310
aI79318
aI79330
aI79333
aI79350
aI79361
aI79366
aI79382
aI79396
aI79442
aI79453
aI79465
aI79466
aI79470
aI79478
aI79500
aI79524
aI79525
aI79528
aI79540
aI79542
aI79544
aI79560
aI79614
aI79616
aI79635
aI79641
aI79700
aI79731
aI79748
aI79750
aI79771
aI79772
aI79786
aI79795
aI79798
aI79840
aI79864
aI79872
aI79879
aI79895
aI79897
aI79936
aI79964
aI79970
aI79989
aI79996
aI79997
aI80000
aI80002
aI80004
aI80005
aI80010
aI80013
aI80015
aI80016
aI80018
aI80020
aI80025
aI80030
aI80033
aI80040
aI80048
aI80050
aI80051
aI80054
aI80060
aI80063
aI80064
aI80069
aI80075
aI80080
aI80088
aI80100
aI80113
aI80118
aI80145
aI80150
aI80153
aI80167
aI80195
aI80200
aI80222
aI80225
aI80226
aI80238
aI80250
aI80257
aI80264
aI80269
aI80270
aI80281
aI80297
aI80298
aI80299
aI80300
aI80309
aI80312
aI80338
aI80359
aI80380
aI80400
aI80428
aI80430
aI80450
aI80453
aI80471
aI80484
aI80487
aI80495
aI80500
aI80501
aI80503
aI80520
aI80528
aI80530
aI80531
aI80538
aI80549
aI80556
aI80588
aI80600
aI80604
aI80638
aI80640
aI80650
aI80661
aI80682
aI80703
aI80705
aI80710
aI80725
aI80755
aI80770
aI80800
aI80803
aI80840
aI80857
aI80858
aI80904
aI80911
aI80913
aI80925
aI80959
aI80976
aI80991
aI81000
aI81002
aI81004
aI81014
aI81015
aI81020
aI81023
aI81025
aI81038
aI81059
aI81060
aI81065
aI81089
aI81091
aI81147
aI81160
aI81165
aI81200
aI81207
aI81225
aI81234
aI81249
aI81250
aI81262
aI81265
aI81269
aI81290
aI81300
aI81319
aI81356
aI81400
aI81401
aI81431
aI81432
aI81439
aI81453
aI81460
aI81474
aI81487
aI81493
aI81499
aI81500
aI81501
aI81509
aI81513
aI81551
aI81598
aI81599
aI81619
aI81636
aI81640
aI81650
aI81660
aI81666
aI81712
aI81718
aI81725
aI81752
aI81755
aI81758
aI81791
aI81824
aI81832
aI81895
aI81900
aI81922
aI81923
aI81945
aI81994
aI82000
aI82006
aI82010
aI82033
aI82037
aI82100
aI82131
aI82132
aI82134
aI82147
aI82184
aI82185
aI82203
aI82206
aI82217
aI82235
aI82264
aI82272
aI82281
aI82326
aI82400
aI82406
aI82408
aI82445
aI82448
aI82472
aI82493
aI82500
aI82508
aI82510
aI82515
aI82526
aI82536
aI82537
aI82542
aI82546
aI82550
aI82595
aI82600
aI82613
aI82650
aI82663
aI82685
aI82695
aI82700
aI82719
aI82736
aI82750
aI82770
aI82775
aI82782
aI82840
aI82892
aI82900
aI82934
aI82940
aI82969
aI82971
aI82994
aI83000
aI83012
aI83031
aI83044
aI83058
aI83093
aI83100
aI83114
aI83143
aI83150
aI83158
aI83200
aI83201
aI83205
aI83210
aI83261
aI83289
aI83291
aI83300
aI83312
aI83324
aI83348
aI83362
aI83370
aI83392
aI83396
aI83432
aI83435
aI83437
aI83458
aI83463
aI83483
aI83496
aI83500
aI83503
aI83518
aI83533
aI83558
aI83563
aI83572
aI83595
aI83600
aI83650
aI83656
aI83657
aI83667
aI83673
aI83700
aI83775
aI83793
aI83843
aI83859
aI83864
aI83886
aI83900
aI83936
aI83939
aI83946
aI83957
aI83963
aI83966
aI83967
aI83990
aI84000
aI84015
aI84020
aI84025
aI84030
aI84038
aI84050
aI84053
aI84066
aI84080
aI84100
aI84104
aI84131
aI84132
aI84162
aI84175
aI84200
aI84204
aI84209
aI84240
aI84249
aI84250
aI84251
aI84287
aI84303
aI84320
aI84380
aI84399
aI84400
aI84463
aI84466
aI84467
aI84473
aI84474
aI84490
aI84500
aI84510
aI84525
aI84550
aI84578
aI84600
aI84603
aI84609
aI84618
aI84670
aI84672
aI84710
aI84731
aI84770
aI84798
aI84801
aI84811
aI84825
aI84833
aI84850
aI84888
aI84898
aI84933
aI84942
aI84947
aI84965
aI84983
aI85000
aI85002
aI85010
aI85013
aI85024
aI85025
aI85038
aI85040
aI85050
aI85063
aI85066
aI85090
aI85100
aI85119
aI85124
aI85135
aI85151
aI85154
aI85156
aI85165
aI85169
aI85175
aI85200
aI85211
aI85223
aI85229
aI85236
aI85255
aI85257
aI85292
aI85300
aI85346
aI85350
aI85365
aI85398
aI85441
aI85450
aI85460
aI85466
aI85472
aI85478
aI85498
aI85500
aI85512
aI85525
aI85550
aI85552
aI85553
aI85554
aI85575
aI85659
aI85700
aI85726
aI85740
aI85755
aI85767
aI85790
aI85800
aI85803
aI85805
aI85910
aI85916
aI85948
aI85966
aI85974
aI85989
aI86000
aI86008
aI86010
aI86050
aI86075
aI86100
aI86110
aI86148
aI86150
aI86152
aI86158
aI86235
aI86250
aI86255
aI86259
aI86305
aI86307
aI86358
aI86400
aI86410
aI86434
aI86447
aI86449
aI86465
aI86478
aI86488
aI86492
aI86500
aI86510
aI86538
aI86548
aI86560
aI86594
aI86603
aI86612
aI86627
aI86643
aI86667
aI86673
aI86700
aI86719
aI86735
aI86740
aI86750
aI86758
aI86766
aI86774
aI86798
aI86815
aI86860
aI86875
aI86876
aI86893
aI86914
aI86950
aI86954
aI86972
aI86996
aI87000
aI87005
aI87006
aI87026
aI87045
aI87080
aI87081
aI87089
aI87100
aI87106
aI87111
aI87121
aI87138
aI87174
aI87175
aI87217
aI87231
aI87242
aI87249
aI87250
aI87277
aI87297
aI87304
aI87384
aI87410
aI87418
aI87420
aI87467
aI87473
aI87490
aI87500
aI87501
aI87505
aI87508
aI87513
aI87515
aI87520
aI87526
aI87542
aI87581
aI87631
aI87650
aI87651
aI87690
aI87700
aI87713
aI87719
aI87746
aI87750
aI87752
aI87794
aI87798
aI87807
aI87812
aI87845
aI87867
aI87874
aI87875
aI87901
aI87919
aI87920
aI87945
aI87960
aI87962
aI88000
aI88006
aI88009
aI88010
aI88013
aI88023
aI88040
aI88050
aI88062
aI88110
aI88113
aI88114
aI88126
aI88141
aI88144
aI88149
aI88162
aI88175
aI88178
aI88181
aI88193
aI88200
aI88210
aI88263
aI88275
aI88296
aI88300
aI88370
aI88392
aI88400
aI88425
aI88487
aI88495
aI88496
aI88498
aI88500
aI88504
aI88542
aI88550
aI88578
aI88582
aI88608
aI88609
aI88611
aI88639
aI88650
aI88677
aI88680
aI88694
aI88695
aI88715
aI88730
aI88762
aI88800
aI88808
aI88826
aI88836
aI88850
aI88863
aI88886
aI88899
aI88903
aI88932
aI88940
aI88965
aI88996
aI89000
aI89005
aI89012
aI89015
aI89042
aI89050
aI89129
aI89142
aI89166
aI89176
aI89187
aI89200
aI89225
aI89235
aI89237
aI89248
aI89250
aI89291
aI89294
aI89300
aI89332
aI89347
aI89375
aI89437
aI89464
aI89475
aI89485
aI89500
aI89544
aI89662
aI89666
aI89672
aI89688
aI89734
aI89745
aI89789
aI89800
aI89867
aI89893
aI89910
aI90000
aI90002
aI90004
aI90005
aI90006
aI90009
aI90010
aI90011
aI90012
aI90013
aI90025
aI90047
aI90049
aI90050
aI90052
aI90056
aI90059
aI90061
aI90064
aI90072
aI90086
aI90088
aI90100
aI90110
aI90120
aI90125
aI90129
aI90135
aI90144
aI90150
aI90163
aI90188
aI90190
aI90192
aI90195
aI90200
aI90210
aI90222
aI90223
aI90225
aI90227
aI90249
aI90250
aI90275
aI90305
aI90312
aI90359
aI90368
aI90380
aI90398
aI90400
aI90425
aI90436
aI90443
aI90450
aI90474
aI90500
aI90512
aI90513
aI90545
aI90556
aI90560
aI90600
aI90650
aI90670
aI90684
aI90697
aI90701
aI90702
aI90703
aI90707
aI90725
aI90750
aI90752
aI90864
aI90890
aI90927
aI90935
aI90950
aI90967
aI90970
aI90989
aI90994
aI91000
aI91037
aI91039
aI91100
aI91125
aI91130
aI91145
aI91155
aI91162
aI91200
aI91244
aI91250
aI91256
aI91259
aI91271
aI91273
aI91282
aI91294
aI91299
aI91310
aI91334
aI91347
aI91375
aI91389
aI91400
aI91405
aI91431
aI91454
aI91485
aI91500
aI91501
aI91526
aI91540
aI91544
aI91567
aI91597
aI91658
aI91669
aI91677
aI91728
aI91750
aI91757
aI91770
aI91785
aI91836
aI91849
aI91875
aI91883
aI91934
aI91960
aI91998
aI92000
aI92001
aI92012
aI92016
aI92023
aI92050
aI92060
aI92070
aI92134
aI92148
aI92153
aI92161
aI92178
aI92243
aI92247
aI92250
aI92270
aI92297
aI92300
aI92311
aI92320
aI92346
aI92375
aI92435
aI92436
aI92444
aI92448
aI92466
aI92475
aI92500
aI92508
aI92518
aI92618
aI92650
aI92762
aI92778
aI92784
aI92825
aI92850
aI92867
aI92945
aI92985
aI93000
aI93007
aI93023
aI93026
aI93035
aI93055
aI93057
aI93060
aI93100
aI93142
aI93203
aI93214
aI93215
aI93252
aI93268
aI93284
aI93289
aI93300
aI93308
aI93330
aI93355
aI93390
aI93400
aI93405
aI93417
aI93478
aI93500
aI93501
aI93536
aI93580
aI93600
aI93650
aI93660
aI93695
aI93708
aI93716
aI93730
aI93741
aI93747
aI93750
aI93763
aI93778
aI93793
aI93800
aI93801
aI93838
aI93845
aI93849
aI93856
aI93875
aI93889
aI93900
aI93948
aI93960
aI93993
aI93996
aI94000
aI94008
aI94014
aI94020
aI94023
aI94069
aI94082
aI94100
aI94106
aI94123
aI94150
aI94172
aI94200
aI94220
aI94226
aI94242
aI94341
aI94400
aI94426
aI94453
aI94500
aI94505
aI94557
aI94607
aI94625
aI94630
aI94653
aI94657
aI94665
aI94688
aI94700
aI94760
aI94768
aI94780
aI94828
aI94906
aI94956
aI94983
aI94994
aI94995
aI94999
aI95000
aI95017
aI95031
aI95060
aI95075
aI95094
aI95140
aI95144
aI95148
aI95150
aI95275
aI95283
aI95335
aI95376
aI95400
aI95462
aI95472
aI95500
aI95503
aI95515
aI95526
aI95532
aI95536
aI95538
aI95548
aI95572
aI95576
aI95587
aI95608
aI95670
aI95686
aI95716
aI95720
aI95734
aI95875
aI95950
aI95998
aI96000
aI96009
aI96026
aI96058
aI96080
aI96184
aI96200
aI96226
aI96239
aI96258
aI96268
aI96280
aI96308
aI96366
aI96386
aI96388
aI96482
aI96498
aI96500
aI96515
aI96681
aI96700
aI96713
aI96723
aI96731
aI96750
aI96759
aI96767
aI96778
aI96873
aI96890
aI96914
aI96934
aI96956
aI96984
aI97047
aI97084
aI97089
aI97136
aI97138
aI97140
aI97149
aI97191
aI97207
aI97230
aI97241
aI97275
aI97283
aI97321
aI97334
aI97361
aI97448
aI97475
aI97500
aI97509
aI97528
aI97550
aI97555
aI97574
aI97598
aI97600
aI97622
aI97635
aI97650
aI97660
aI97707
aI97789
aI97800
aI97812
aI97921
aI97990
aI98000
aI98005
aI98010
aI98018
aI98038
aI98051
aI98076
aI98100
aI98109
aI98200
aI98225
aI98229
aI98369
aI98384
aI98389
aI98409
aI98410
aI98457
aI98488
aI98500
aI98505
aI98508
aI98511
aI98530
aI98541
aI98600
aI98625
aI98706
aI98707
aI98772
aI98800
aI98827
aI98908
aI99000
aI99013
aI99023
aI99030
aI99078
aI99099
aI99100
aI99117
aI99141
aI99200
aI99215
aI99245
aI99350
aI99353
aI99400
aI99421
aI99450
aI99498
aI99500
aI99510
aI99515
aI99590
aI99661
aI99826
aI99863
aI99900
aI99950
aI99960
aI99962
aI99996
aI100000
aI100001
aI100006
aI100010
aI100017
aI100018
aI100022
aI100025
aI100034
aI100040
aI100055
aI100059
aI100065
aI100066
aI100070
aI100078
aI100088
aI100099
aI100100
aI100112
aI100140
aI100141
aI100150
aI100156
aI100184
aI100188
aI100190
aI100200
aI100240
aI100250
aI100301
aI100365
aI100400
aI100410
aI100413
aI100434
aI100447
aI100451
aI100456
aI100457
aI100472
aI100500
aI100501
aI100506
aI100510
aI100520
aI100544
aI100548
aI100550
aI100600
aI100613
aI100621
aI100626
aI100628
aI100640
aI100642
aI100650
aI100676
aI100678
aI100700
aI100708
aI100720
aI100724
aI100749
aI100750
aI100772
aI100795
aI100800
aI100829
aI100836
aI100848
aI100851
aI100914
aI100965
aI100975
aI100977
aI100984
aI101000
aI101025
aI101027
aI101035
aI101080
aI101111
aI101139
aI101188
aI101200
aI101250
aI101259
aI101301
aI101305
aI101350
aI101351
aI101367
aI101382
aI101475
aI101500
aI101590
aI101600
aI101650
aI101669
aI101673
aI101707
aI101722
aI101750
aI101786
aI101806
aI101824
aI101872
aI101875
aI101965
aI101991
aI102000
aI102005
aI102006
aI102008
aI102012
aI102017
aI102053
aI102100
aI102195
aI102200
aI102207
aI102237
aI102247
aI102273
aI102300
aI102314
aI102370
aI102384
aI102417
aI102436
aI102456
aI102469
aI102500
aI102506
aI102700
aI102706
aI102742
aI102745
aI102747
aI102750
aI102768
aI102791
aI102853
aI102860
aI102936
aI102941
aI102983
aI103000
aI103002
aI103024
aI103083
aI103084
aI103125
aI103152
aI103158
aI103189
aI103192
aI103217
aI103267
aI103276
aI103308
aI103368
aI103372
aI103419
aI103428
aI103453
aI103472
aI103502
aI103508
aI103511
aI103513
aI103520
aI103543
aI103634
aI103681
aI103692
aI103700
aI103732
aI103761
aI103768
aI103832
aI103841
aI103854
aI103856
aI103864
aI103873
aI103931
aI103954
aI103995
aI104000
aI104003
aI104008
aI104025
aI104032
aI104036
aI104100
aI104125
aI104135
aI104146
aI104165
aI104206
aI104213
aI104219
aI104221
aI104365
aI104427
aI104450
aI104500
aI104583
aI104651
aI104700
aI104800
aI104842
aI104988
aI104999
aI105000
aI105003
aI105025
aI105050
aI105088
aI105100
aI105123
aI105128
aI105155
aI105156
aI105172
aI105200
aI105225
aI105250
aI105259
aI105288
aI105297
aI105411
aI105413
aI105451
aI105460
aI105506
aI105554
aI105561
aI105598
aI105600
aI105675
aI105697
aI105730
aI105775
aI105803
aI105810
aI105898
aI105986
aI105988
aI106000
aI106017
aI106031
aI106073
aI106239
aI106257
aI106262
aI106288
aI106302
aI106345
aI106400
aI106510
aI106582
aI106587
aI106590
aI106704
aI106732
aI106803
aI106805
aI106841
aI106933
aI107000
aI107028
aI107050
aI107052
aI107068
aI107086
aI107100
aI107216
aI107241
aI107336
aI107401
aI107429
aI107498
aI107500
aI107510
aI107624
aI107667
aI107727
aI107830
aI107873
aI107939
aI107976
aI107995
aI108000
aI108012
aI108033
aI108050
aI108350
aI108368
aI108526
aI108544
aI108578
aI108671
aI108672
aI108723
aI108861
aI108992
aI108999
aI109000
aI109062
aI109121
aI109135
aI109299
aI109498
aI109622
aI109649
aI109669
aI109887
aI109940
aI110251
aI110432
aI110440
aI110523
aI110613
aI110651
aI110700
aI110766
aI110832
aI111086
aI111222
aI111253
aI111400
aI111488
aI111529
aI111575
aI111658
aI111673
aI111716
aI111735
aI111855
aI111882
aI111946
aI111983
aI111993
aI112331
aI112416
aI112516
aI112562
aI112625
aI112643
aI112725
aI112739
aI112778
aI112824
aI112873
aI112887
aI112959
aI113258
aI113274
aI113453
aI113632
aI113768
aI113964
aI114013
aI114100
aI114141
aI114281
aI114363
aI114378
aI114462
aI114548
aI114619
aI114747
aI114944
aI115118
aI115261
aI115346
aI115371
aI115524
aI115531
aI115766
aI115952
aI116065
aI116300
aI116576
aI116725
aI116766
aI116941
aI116950
aI116958
aI117193
aI117281
aI117286
aI117497
aI117500
aI117534
aI117551
aI117638
aI117840
aI117883
aI117928
aI118031
aI118036
aI118163
aI118204
aI118230
aI118582
aI118789
aI119245
aI119410
aI119479
aI119491
aI119554
aI119599
aI119654
aI119777
aI120030
aI120124
aI120181
aI120521
aI120566
aI120579
aI120754
aI120959
aI121137
aI121453
aI121525
aI121730
aI121750
aI121751
aI121783
aI121850
aI121856
aI122294
aI122316
aI122349
aI122470
aI122649
aI122677
aI122686
aI122794
aI122804
aI122813
aI122893
aI123300
aI123361
aI123370
aI123406
aI123574
aI123663
aI124095
aI124254
aI124348
aI124380
aI124447
aI124548
aI124665
aI124670
aI124780
aI124900
aI125001
aI125433
aI125701
aI125704
aI125729
aI125779
aI125909
aI125954
aI125965
aI126026
aI126163
aI126276
aI126297
aI126317
aI126602
aI126610
aI126650
aI126685
aI126746
aI126806
aI126954
aI127062
aI127238
aI127249
aI127266
aI127323
aI127374
aI127379
aI127400
aI127582
aI127805
aI127825
aI127895
aI127910
aI128077
aI128217
aI128297
aI128957
aI129005
aI129041
aI129152
aI129160
aI129265
aI129316
aI129420
aI129428
aI129453
aI129599
aI129840
aI129850
aI129947
aI130027
aI130037
aI130196
aI130338
aI130354
aI130355
aI130629
aI130805
aI130966
aI131212
aI131483
aI131544
aI131613
aI131778
aI131845
aI132043
aI132201
aI132481
aI132483
aI132533
aI132760
aI132877
aI133200
aI133257
aI133483
aI133699
aI134301
aI134365
aI134469
aI134523
aI134680
aI134866
aI134969
aI134987
aI135023
aI135033
aI135069
aI135072
aI135189
aI135211
aI135219
aI135233
aI135293
aI135471
aI135773
aI135811
aI135892
aI136065
aI136127
aI136437
aI137314
aI137461
aI137480
aI137669
aI137763
aI137811
aI137894
aI138241
aI138254
aI138341
aI138354
aI138391
aI139035
aI139305
aI139570
aI139606
aI139868
aI139959
aI139983
aI140074
aI140224
aI140249
aI140258
aI140843
aI140929
aI140993
aI141000
aI141597
aI141894
aI141895
aI141928
aI141949
aI141987
aI142047
aI142096
aI142218
aI142232
aI142489
aI142871
aI142887
aI143048
aI143086
aI143138
aI143194
aI143268
aI143398
aI143837
aI143861
aI143909
aI144063
aI144194
aI144227
aI144394
aI144442
aI144546
aI144590
aI144600
aI144684
aI144771
aI145281
aI145290
aI145349
aI145489
aI145498
aI145517
aI145544
aI145810
aI145922
aI146416
aI146440
aI146540
aI146862
aI146886
aI146943
aI147033
aI147060
aI147132
aI147308
aI147312
aI147493
aI147771
aI148112
aI148133
aI148229
aI148279
aI148381
aI148384
aI148548
aI148576
aI148605
aI148668
aI148941
aI148994
aI149011
aI149125
aI149282
aI149337
aI149361
aI149421
aI149468
aI149563
aI149574
aI149659
aI149816
aI149987
aI150033
aI150065
aI150246
aI150496
aI151111
aI151224
aI151232
aI151365
aI151385
aI151472
aI151699
aI151822
aI151844
aI151848
aI151857
aI152461
aI152498
aI152602
aI152838
aI152970
aI153078
aI153198
aI153288
aI153320
aI153437
aI153580
aI153683
aI153743
aI153779
aI154394
aI154473
aI154528
aI154644
aI154737
aI154964
aI155030
aI155041
aI155354
aI155381
aI155590
aI155614
aI155668
aI155705
aI156139
aI156162
aI156494
aI157061
aI157092
aI157307
aI157437
aI157492
aI157713
aI158286
aI158647
aI158947
aI158994
aI159102
aI159539
aI159551
aI159595
aI159802
aI159918
aI159965
aI160425
aI160857
aI160981
aI161566
aI161647
aI162050
aI162246
aI162373
aI162562
aI162616
aI163111
aI163662
aI164020
aI164519
aI164911
aI165575
aI165710
aI165940
aI166175
aI166186
aI166624
aI166847
aI167017
aI167328
aI167500
aI168613
aI169121
aI169409
aI169753
aI170108
aI171262
aI172284
aI172371
aI172699
aI173261
aI173436
aI174417
aI175653
aI176761
aI176839
aI178446
aI179056
aI180045
aI181088
aI181339
aI182558
aI182747
aI182836
aI183257
aI183400
aI186909
aI187748
aI191886
aI193623
aI194087
aI197488
aI202380
aI206221
aI210722
aI231499
aI242968
aI256100
aI279668
aI312460
aI361085
aI426266
aI437861
aI521612
a.